
SocNios.elf:     file format elf32-littlenios2
SocNios.elf
architecture: nios2, flags 0x00000112:
EXEC_P, HAS_SYMS, D_PAGED
start address 0x000401b8

Program Header:
    LOAD off    0x00001000 vaddr 0x00040000 paddr 0x00040000 align 2**12
         filesz 0x00000000 memsz 0x00000000 flags r-x
    LOAD off    0x00001020 vaddr 0x00040020 paddr 0x00040020 align 2**12
         filesz 0x00008fe4 memsz 0x00009978 flags rwx

Sections:
Idx Name          Size      VMA       LMA       File off  Algn
  0 .entry        00000000  00040000  00040000  00001000  2**5
                  CONTENTS, ALLOC, LOAD, READONLY, CODE
  1 .exceptions   00000198  00040020  00040020  00001020  2**2
                  CONTENTS, ALLOC, LOAD, READONLY, CODE
  2 .text         00007120  000401b8  000401b8  000011b8  2**2
                  CONTENTS, ALLOC, LOAD, READONLY, CODE
  3 .rodata       0000020c  000472d8  000472d8  000082d8  2**2
                  CONTENTS, ALLOC, LOAD, READONLY, DATA
  4 .rwdata       00001b20  000474e4  000474e4  000084e4  2**2
                  CONTENTS, ALLOC, LOAD, DATA, SMALL_DATA
  5 .bss          00000994  00049004  00049004  0000a004  2**2
                  ALLOC, SMALL_DATA
  6 .comment      00000046  00000000  00000000  0000a004  2**0
                  CONTENTS, READONLY
  7 .debug_aranges 00000ad0  00000000  00000000  0000a050  2**3
                  CONTENTS, READONLY, DEBUGGING
  8 .debug_info   000191aa  00000000  00000000  0000ab20  2**0
                  CONTENTS, READONLY, DEBUGGING
  9 .debug_abbrev 00006f49  00000000  00000000  00023cca  2**0
                  CONTENTS, READONLY, DEBUGGING
 10 .debug_line   000071e3  00000000  00000000  0002ac13  2**0
                  CONTENTS, READONLY, DEBUGGING
 11 .debug_frame  0000149c  00000000  00000000  00031df8  2**2
                  CONTENTS, READONLY, DEBUGGING
 12 .debug_str    000024e3  00000000  00000000  00033294  2**0
                  CONTENTS, READONLY, DEBUGGING
 13 .debug_loc    00005896  00000000  00000000  00035777  2**0
                  CONTENTS, READONLY, DEBUGGING
 14 .debug_alt_sim_info 00000040  00000000  00000000  0003b010  2**2
                  CONTENTS, READONLY, DEBUGGING
 15 .debug_ranges 000002f8  00000000  00000000  0003b050  2**3
                  CONTENTS, READONLY, DEBUGGING
 16 .thread_model 00000003  00000000  00000000  0003dc9a  2**0
                  CONTENTS, READONLY
 17 .cpu          0000000c  00000000  00000000  0003dc9d  2**0
                  CONTENTS, READONLY
 18 .qsys         00000001  00000000  00000000  0003dca9  2**0
                  CONTENTS, READONLY
 19 .simulation_enabled 00000001  00000000  00000000  0003dcaa  2**0
                  CONTENTS, READONLY
 20 .sysid_hash   00000004  00000000  00000000  0003dcab  2**0
                  CONTENTS, READONLY
 21 .sysid_base   00000004  00000000  00000000  0003dcaf  2**0
                  CONTENTS, READONLY
 22 .sysid_time   00000004  00000000  00000000  0003dcb3  2**0
                  CONTENTS, READONLY
 23 .stderr_dev   00000009  00000000  00000000  0003dcb7  2**0
                  CONTENTS, READONLY
 24 .stdin_dev    00000009  00000000  00000000  0003dcc0  2**0
                  CONTENTS, READONLY
 25 .stdout_dev   00000009  00000000  00000000  0003dcc9  2**0
                  CONTENTS, READONLY
 26 .sopc_system_name 0000000a  00000000  00000000  0003dcd2  2**0
                  CONTENTS, READONLY
 27 .sopcinfo     000435b2  00000000  00000000  0003dcdc  2**0
                  CONTENTS, READONLY
SYMBOL TABLE:
00040000 l    d  .entry	00000000 .entry
00040020 l    d  .exceptions	00000000 .exceptions
000401b8 l    d  .text	00000000 .text
000472d8 l    d  .rodata	00000000 .rodata
000474e4 l    d  .rwdata	00000000 .rwdata
00049004 l    d  .bss	00000000 .bss
00000000 l    d  .comment	00000000 .comment
00000000 l    d  .debug_aranges	00000000 .debug_aranges
00000000 l    d  .debug_info	00000000 .debug_info
00000000 l    d  .debug_abbrev	00000000 .debug_abbrev
00000000 l    d  .debug_line	00000000 .debug_line
00000000 l    d  .debug_frame	00000000 .debug_frame
00000000 l    d  .debug_str	00000000 .debug_str
00000000 l    d  .debug_loc	00000000 .debug_loc
00000000 l    d  .debug_alt_sim_info	00000000 .debug_alt_sim_info
00000000 l    d  .debug_ranges	00000000 .debug_ranges
00000000 l    df *ABS*	00000000 ../SocNiosBSP//obj/HAL/src/crt0.o
000401ec l       .text	00000000 alt_after_alt_main
00000000 l    df *ABS*	00000000 alt_exception_entry.o
00040094 l       .exceptions	00000000 alt_exception_unknown
00000000 l    df *ABS*	00000000 alt_irq_handler.c
00000000 l    df *ABS*	00000000 interrupt_handler_uart.c
00000000 l    df *ABS*	00000000 main.c
000405bc l     F .text	00000078 printchar
00040634 l     F .text	0000016c prints
000407a0 l     F .text	00000178 printi
00040918 l     F .text	00000410 print
00000000 l    df *ABS*	00000000 fp-bit.c
00000000 l    df *ABS*	00000000 fp-bit.c
00000000 l    df *ABS*	00000000 fp-bit.c
00000000 l    df *ABS*	00000000 fp-bit.c
00000000 l    df *ABS*	00000000 fp-bit.c
000416b0 l     F .text	00000354 _fpadd_parts
00000000 l    df *ABS*	00000000 fp-bit.c
00000000 l    df *ABS*	00000000 fp-bit.c
00000000 l    df *ABS*	00000000 fp-bit.c
00000000 l    df *ABS*	00000000 lib2-divmod.c
00041bb4 l     F .text	00000074 udivmodsi4
00000000 l    df *ABS*	00000000 lib2-mul.c
00000000 l    df *ABS*	00000000 libgcc2.c
00000000 l    df *ABS*	00000000 fp-bit.c
00000000 l    df *ABS*	00000000 fp-bit.c
00000000 l    df *ABS*	00000000 fp-bit.c
00000000 l    df *ABS*	00000000 fp-bit.c
00000000 l    df *ABS*	00000000 libgcc2.c
00000000 l    df *ABS*	00000000 libgcc2.c
00000000 l    df *ABS*	00000000 libgcc2.c
00000000 l    df *ABS*	00000000 impure.c
000474e4 l     O .rwdata	00000400 impure_data
00000000 l    df *ABS*	00000000 memset.c
00000000 l    df *ABS*	00000000 putc.c
00000000 l    df *ABS*	00000000 strncmp.c
00000000 l    df *ABS*	00000000 wbuf.c
00000000 l    df *ABS*	00000000 wsetup.c
00000000 l    df *ABS*	00000000 fflush.c
00000000 l    df *ABS*	00000000 findfp.c
00042bc4 l     F .text	00000008 __fp_lock
00042bcc l     F .text	00000008 __fp_unlock
00000000 l    df *ABS*	00000000 mallocr.c
00000000 l    df *ABS*	00000000 fwalk.c
00000000 l    df *ABS*	00000000 makebuf.c
00000000 l    df *ABS*	00000000 mallocr.c
00000000 l    df *ABS*	00000000 sbrkr.c
00000000 l    df *ABS*	00000000 stdio.c
00000000 l    df *ABS*	00000000 writer.c
00000000 l    df *ABS*	00000000 closer.c
00000000 l    df *ABS*	00000000 fclose.c
00000000 l    df *ABS*	00000000 fstatr.c
00000000 l    df *ABS*	00000000 int_errno.c
00000000 l    df *ABS*	00000000 isattyr.c
00000000 l    df *ABS*	00000000 lseekr.c
00000000 l    df *ABS*	00000000 readr.c
00000000 l    df *ABS*	00000000 alt_close.c
000442b0 l     F .text	00000050 alt_get_errno
00000000 l    df *ABS*	00000000 alt_dev.c
000443cc l     F .text	0000002c alt_dev_null_write
00000000 l    df *ABS*	00000000 alt_errno.c
00000000 l    df *ABS*	00000000 alt_fstat.c
000443f8 l     F .text	00000050 alt_get_errno
00000000 l    df *ABS*	00000000 alt_iic.c
00000000 l    df *ABS*	00000000 alt_iic_isr_register.c
00000000 l    df *ABS*	00000000 alt_irq_vars.c
00000000 l    df *ABS*	00000000 alt_isatty.c
000447c0 l     F .text	00000050 alt_get_errno
00000000 l    df *ABS*	00000000 alt_lseek.c
000448b4 l     F .text	00000050 alt_get_errno
00000000 l    df *ABS*	00000000 alt_main.c
00000000 l    df *ABS*	00000000 alt_malloc_lock.c
00000000 l    df *ABS*	00000000 alt_printf.c
00000000 l    df *ABS*	00000000 alt_putchar.c
00000000 l    df *ABS*	00000000 alt_read.c
00044cec l     F .text	00000050 alt_get_errno
00000000 l    df *ABS*	00000000 alt_release_fd.c
00000000 l    df *ABS*	00000000 alt_sbrk.c
00048ff8 l     O .rwdata	00000004 heap_end
00000000 l    df *ABS*	00000000 alt_usleep.c
00000000 l    df *ABS*	00000000 alt_write.c
00044f90 l     F .text	00000050 alt_get_errno
00000000 l    df *ABS*	00000000 alt_sys_init.c
000450d0 l     F .text	00000038 alt_dev_reg
00047e94 l     O .rwdata	00001060 jtag_uart
00048ef4 l     O .rwdata	000000c4 uart_0
00000000 l    df *ABS*	00000000 altera_avalon_jtag_uart_fd.c
00000000 l    df *ABS*	00000000 altera_avalon_jtag_uart_init.c
000453c8 l     F .text	00000204 altera_avalon_jtag_uart_irq
000455cc l     F .text	000000a4 altera_avalon_jtag_uart_timeout
00000000 l    df *ABS*	00000000 altera_avalon_jtag_uart_ioctl.c
00000000 l    df *ABS*	00000000 altera_avalon_jtag_uart_read.c
00000000 l    df *ABS*	00000000 altera_avalon_jtag_uart_write.c
00000000 l    df *ABS*	00000000 altera_avalon_uart_fd.c
00000000 l    df *ABS*	00000000 altera_avalon_uart_init.c
00045dbc l     F .text	00000098 altera_avalon_uart_irq
00045e54 l     F .text	000000d8 altera_avalon_uart_rxirq
00045f2c l     F .text	0000013c altera_avalon_uart_txirq
00000000 l    df *ABS*	00000000 altera_avalon_uart_read.c
000460bc l     F .text	00000050 alt_get_errno
00000000 l    df *ABS*	00000000 altera_avalon_uart_write.c
000462ec l     F .text	00000050 alt_get_errno
00000000 l    df *ABS*	00000000 alt_alarm_start.c
00000000 l    df *ABS*	00000000 alt_busy_sleep.c
00000000 l    df *ABS*	00000000 alt_dev_llist_insert.c
00046778 l     F .text	00000050 alt_get_errno
00000000 l    df *ABS*	00000000 alt_io_redirect.c
0004686c l     F .text	000000e0 alt_open_fd
00000000 l    df *ABS*	00000000 alt_open.c
000469c4 l     F .text	00000050 alt_get_errno
00046a14 l     F .text	000000f0 alt_file_locked
00000000 l    df *ABS*	00000000 alt_tick.c
00000000 l    df *ABS*	00000000 altera_nios2_qsys_irq.c
00000000 l    df *ABS*	00000000 alt_find_dev.c
00000000 l    df *ABS*	00000000 alt_find_file.c
00000000 l    df *ABS*	00000000 alt_get_fd.c
00000000 l    df *ABS*	00000000 memcmp.c
00000000 l    df *ABS*	00000000 memcpy.c
00000000 l    df *ABS*	00000000 strlen.c
00000000 l    df *ABS*	00000000 
00048fc4 g     O .rwdata	00000008 unknown
00044174 g     F .text	00000064 _isatty_r
000449d8 g     F .text	00000068 alt_main
00042318 g     F .text	00000044 __ashldi3
00049898 g     O .bss	00000100 alt_irq
000441d8 g     F .text	0000006c _lseek_r
00049998 g       *ABS*	00000000 __alt_heap_start
00043e88 g     F .text	0000005c __sseek
00042c68 g     F .text	0000010c __sinit
000426e0 g     F .text	0000013c __swbuf_r
00042be0 g     F .text	00000078 __sfmoreglue
0004900a g     O .bss	00000002 RxTail_1
00044a60 g     F .text	00000020 __malloc_unlock
0004145c g     F .text	0000013c __divsf3
00042c58 g     F .text	00000010 _cleanup
00000000  w      *UND*	00000000 __errno
00040000 g     F .entry	00000000 __reset
0004410c g     F .text	00000068 _fstat_r
00049020 g     O .bss	00000004 errno
00041b7c g     F .text	00000038 __make_dp
0004902c g     O .bss	00000004 alt_argv
00050fb8 g       *ABS*	00000000 _gp
00044f60 g     F .text	00000030 usleep
00047d14 g     O .rwdata	00000180 alt_fd_list
00046e18 g     F .text	00000090 alt_find_dev
0004710c g     F .text	00000140 memcpy
00042bd4 g     F .text	0000000c _cleanup_r
0004694c g     F .text	00000078 alt_io_redirect
00040e28 g     F .text	00000068 putc_uart0
000457cc g     F .text	00000218 altera_avalon_jtag_uart_read
00041cd4 g     F .text	00000008 __udivsi3
00044810 g     F .text	000000a4 isatty
0004901c g     O .bss	00000004 __malloc_top_pad
00043d48 g     F .text	00000064 _sbrk_r
00044244 g     F .text	0000006c _read_r
00048fec g     O .rwdata	00000004 alt_max_fd
000421d0 g     F .text	00000104 __unpack_d
00043fbc g     F .text	0000013c _fclose_r
00042b94 g     F .text	00000030 fflush
00049018 g     O .bss	00000004 __malloc_max_sbrked_mem
00041598 g     F .text	00000044 __extendsfdf2
00041a04 g     F .text	00000054 __adddf3
00040e90 g     F .text	000000a0 putstr_uart0
00040298 g     F .text	00000140 IsrUart1
00044904 g     F .text	000000d4 lseek
00048fcc g     O .rwdata	00000004 _global_impure_ptr
00049998 g       *ABS*	00000000 __bss_end
000446d0 g     F .text	000000f0 alt_iic_isr_register
00046cf4 g     F .text	00000104 alt_tick
00045d14 g     F .text	000000a8 altera_avalon_uart_init
00042e80 g     F .text	00000018 __fp_lock_all
00044684 g     F .text	0000004c alt_ic_irq_enabled
00046c5c g     F .text	00000098 alt_alarm_stop
00000000 g       *ABS*	00000000 __alt_mem_data_memory
00049024 g     O .bss	00000004 alt_irq_active
000400ec g     F .exceptions	000000cc alt_irq_handler
00047cec g     O .rwdata	00000028 alt_dev_null
000413ac g     F .text	000000b0 dump_memory
00041ee4 g     F .text	000000c8 __unpack_f
00041ab8 g     F .text	000000c4 __fixdfsi
00040438 g     F .text	0000005c GetUart1
00048fe4 g     O .rwdata	00000008 alt_dev_list
00044fe0 g     F .text	000000f0 write
00042438 g     F .text	000000bc _putc_r
00044448 g     F .text	000000b0 fstat
000422d4 g     F .text	00000044 __lshrdi3
00041cdc g     F .text	00000008 __umodsi3
00049998 g       *ABS*	00000000 end
00041db8 g     F .text	0000012c __pack_f
0004633c g     F .text	000001a8 altera_avalon_uart_write
000410bc g     F .text	000002f0 start_test
00045308 g     F .text	000000c0 altera_avalon_jtag_uart_init
0004a000 g       *ABS*	00000000 __alt_stack_pointer
00045c64 g     F .text	00000060 altera_avalon_uart_write_fd
00041d0c g     F .text	000000ac __clzsi2
00045cc4 g     F .text	00000050 altera_avalon_uart_close_fd
000459e4 g     F .text	00000220 altera_avalon_jtag_uart_write
00042e70 g     F .text	00000004 __sfp_lock_acquire
00042fec g     F .text	000002d0 _free_r
00044a80 g     F .text	00000228 alt_printf
00048fd4 g     O .rwdata	00000004 __malloc_sbrk_base
000401b8 g     F .text	00000038 _start
00049034 g     O .bss	00000004 _alt_tick_rate
00049038 g     O .bss	00000004 _alt_nticks
00044d3c g     F .text	000000f4 read
0004513c g     F .text	00000068 alt_sys_init
00049864 g     O .bss	00000032 buffer
000425e4 g     F .text	000000fc strncmp
00049006 g     O .bss	00000002 TxTail_1
00045670 g     F .text	00000068 altera_avalon_jtag_uart_close
00041ce4 g     F .text	00000028 __mulsi3
0004903c g     O .bss	00000028 __malloc_current_mallinfo
000451a4 g     F .text	00000060 altera_avalon_jtag_uart_read_fd
00046fbc g     F .text	000000d4 alt_get_fd
00046624 g     F .text	00000154 alt_busy_sleep
00043f58 g     F .text	00000064 _close_r
00047090 g     F .text	0000007c memcmp
00045264 g     F .text	00000050 altera_avalon_jtag_uart_close_fd
00049998 g       *ABS*	00000000 __alt_stack_base
000452b4 g     F .text	00000054 altera_avalon_jtag_uart_ioctl_fd
00042838 g     F .text	00000174 __swsetup_r
00042d74 g     F .text	000000fc __sfp
000478e4 g     O .rwdata	00000408 __malloc_av_
00042e7c g     F .text	00000004 __sinit_lock_release
00043dac g     F .text	00000054 __sread
00047384 g     O .rodata	00000010 __thenan_sf
00046ea8 g     F .text	00000114 alt_find_file
00040d78 g     F .text	00000054 raw_sprintf
000467c8 g     F .text	000000a4 alt_dev_llist_insert
00044a40 g     F .text	00000020 __malloc_lock
00044eb0 g     F .text	000000b0 sbrk
000429ac g     F .text	000001e8 _fflush_r
00049004 g       *ABS*	00000000 __bss_start
0004235c g     F .text	000000dc memset
00041008 g     F .text	000000b4 main
00040d28 g     F .text	00000050 raw_printf
00049030 g     O .bss	00000004 alt_envp
00049014 g     O .bss	00000004 __malloc_max_total_mem
00045204 g     F .text	00000060 altera_avalon_jtag_uart_write_fd
0004281c g     F .text	0000001c __swbuf
0004900c g     O .bss	00000001 received_word
00049064 g     O .bss	00000400 rx_buffer_1
00049004 g     O .bss	00000002 TxHead_1
00043ee4 g     F .text	00000008 __sclose
0004a000 g       *ABS*	00000000 __alt_heap_limit
000440f8 g     F .text	00000014 fclose
000435c4 g     F .text	00000784 _malloc_r
00048ff0 g     O .rwdata	00000004 alt_errno
000432bc g     F .text	000000a8 _fwalk
00040414 g     F .text	00000024 flush_rx_buffer
000424f4 g     F .text	000000f0 putc
00041c28 g     F .text	00000050 __divsi3
00047394 g     O .rodata	00000014 __thenan_df
00042eb0 g     F .text	0000013c _malloc_trim_r
00049008 g     O .bss	00000002 RxHead_1
00045108 g     F .text	00000034 alt_irq_init
00044e30 g     F .text	00000080 alt_release_fd
000473a8 g     O .rodata	00000100 __clz_tab
00049464 g     O .bss	00000400 tx_buffer_1
00043eec g     F .text	0000006c _write_r
00048fd0 g     O .rwdata	00000004 _impure_ptr
00048fbc g     O .rwdata	00000006 error
00049028 g     O .bss	00000004 alt_argc
00040dcc g     F .text	0000005c InitUart
00040020 g       .exceptions	00000000 alt_irq_entry
00042e98 g     F .text	00000018 __fp_unlock_all
00048fdc g     O .rwdata	00000008 alt_fs_list
00040000 g       *ABS*	00000000 __alt_mem_cpu_memory
000444f8 g     F .text	00000050 alt_ic_isr_register
00049004 g       *ABS*	00000000 _edata
00045c04 g     F .text	00000060 altera_avalon_uart_read_fd
00049998 g       *ABS*	00000000 _end
000401f0 g     F .text	000000a8 InitUart1
000456d8 g     F .text	000000f4 altera_avalon_jtag_uart_ioctl
000445e4 g     F .text	000000a0 alt_ic_irq_disable
00043e00 g     F .text	00000088 __swrite
00048fd8 g     O .rwdata	00000004 __malloc_trim_threshold
00046df8 g     F .text	00000020 altera_nios2_qsys_irq_init
00043364 g     F .text	000000b8 _fwalk_reent
000415dc g     F .text	000000d4 __floatunsisf
00041c78 g     F .text	0000005c __modsi3
0004a000 g       *ABS*	00000000 __alt_data_end
00040020 g     F .exceptions	00000000 alt_exception
00048fb8 g     O .rwdata	00000004 uart
00042e74 g     F .text	00000004 __sfp_lock_release
00040494 g     F .text	00000128 PutUart1
00046068 g     F .text	00000054 altera_avalon_uart_close
00040000 g       .entry	00000000 _exit
000464e4 g     F .text	00000140 alt_alarm_start
00040f30 g     F .text	000000d8 error_check
0004341c g     F .text	000001a8 __smakebuf_r
0004724c g     F .text	0000008c strlen
000403d8 g     F .text	0000003c EmptyUart1
00046b04 g     F .text	00000158 open
00044ca8 g     F .text	00000044 alt_putchar
00048ff4 g     O .rwdata	00000004 alt_priority_mask
00044548 g     F .text	0000009c alt_ic_irq_enable
0004610c g     F .text	000001e0 altera_avalon_uart_read
00041a58 g     F .text	00000060 __subdf3
00048ffc g     O .rwdata	00000008 alt_alarm_list
00044300 g     F .text	000000cc close
00049010 g     O .bss	00000004 context_uart0
00041fac g     F .text	00000224 __pack_d
00042e78 g     F .text	00000004 __sinit_lock_acquire



Disassembly of section .exceptions:

00040020 <alt_exception>:
   40020:	deffed04 	addi	sp,sp,-76
   40024:	dfc00015 	stw	ra,0(sp)
   40028:	d8400215 	stw	at,8(sp)
   4002c:	d8800315 	stw	r2,12(sp)
   40030:	d8c00415 	stw	r3,16(sp)
   40034:	d9000515 	stw	r4,20(sp)
   40038:	d9400615 	stw	r5,24(sp)
   4003c:	d9800715 	stw	r6,28(sp)
   40040:	d9c00815 	stw	r7,32(sp)
   40044:	000b307a 	rdctl	r5,estatus
   40048:	da000915 	stw	r8,36(sp)
   4004c:	da400a15 	stw	r9,40(sp)
   40050:	da800b15 	stw	r10,44(sp)
   40054:	dac00c15 	stw	r11,48(sp)
   40058:	db000d15 	stw	r12,52(sp)
   4005c:	db400e15 	stw	r13,56(sp)
   40060:	db800f15 	stw	r14,60(sp)
   40064:	dbc01015 	stw	r15,64(sp)
   40068:	d9401115 	stw	r5,68(sp)
   4006c:	ebffff04 	addi	r15,ea,-4
   40070:	dbc01215 	stw	r15,72(sp)
   40074:	0009313a 	rdctl	r4,ipending
   40078:	2880004c 	andi	r2,r5,1
   4007c:	10000326 	beq	r2,zero,4008c <alt_exception+0x6c>
   40080:	20000226 	beq	r4,zero,4008c <alt_exception+0x6c>
   40084:	00400ec0 	call	400ec <alt_irq_handler>
   40088:	00000306 	br	40098 <alt_exception_unknown+0x4>
   4008c:	df401215 	stw	ea,72(sp)
   40090:	e8bfff17 	ldw	r2,-4(ea)

00040094 <alt_exception_unknown>:
   40094:	003da03a 	break	0
   40098:	d9401117 	ldw	r5,68(sp)
   4009c:	df401217 	ldw	ea,72(sp)
   400a0:	dfc00017 	ldw	ra,0(sp)
   400a4:	2801707a 	wrctl	estatus,r5
   400a8:	d8400217 	ldw	at,8(sp)
   400ac:	d8800317 	ldw	r2,12(sp)
   400b0:	d8c00417 	ldw	r3,16(sp)
   400b4:	d9000517 	ldw	r4,20(sp)
   400b8:	d9400617 	ldw	r5,24(sp)
   400bc:	d9800717 	ldw	r6,28(sp)
   400c0:	d9c00817 	ldw	r7,32(sp)
   400c4:	da000917 	ldw	r8,36(sp)
   400c8:	da400a17 	ldw	r9,40(sp)
   400cc:	da800b17 	ldw	r10,44(sp)
   400d0:	dac00c17 	ldw	r11,48(sp)
   400d4:	db000d17 	ldw	r12,52(sp)
   400d8:	db400e17 	ldw	r13,56(sp)
   400dc:	db800f17 	ldw	r14,60(sp)
   400e0:	dbc01017 	ldw	r15,64(sp)
   400e4:	dec01304 	addi	sp,sp,76
   400e8:	ef80083a 	eret

000400ec <alt_irq_handler>:
   400ec:	defff904 	addi	sp,sp,-28
   400f0:	dfc00615 	stw	ra,24(sp)
   400f4:	df000515 	stw	fp,20(sp)
   400f8:	df000504 	addi	fp,sp,20
   400fc:	0001883a 	nop
   40100:	0005313a 	rdctl	r2,ipending
   40104:	e0bffe15 	stw	r2,-8(fp)
   40108:	e0bffe17 	ldw	r2,-8(fp)
   4010c:	e0bffb15 	stw	r2,-20(fp)
   40110:	e03ffd15 	stw	zero,-12(fp)
   40114:	00800044 	movi	r2,1
   40118:	e0bffc15 	stw	r2,-16(fp)
   4011c:	e0fffb17 	ldw	r3,-20(fp)
   40120:	e0bffc17 	ldw	r2,-16(fp)
   40124:	1884703a 	and	r2,r3,r2
   40128:	10001726 	beq	r2,zero,40188 <alt_irq_handler+0x9c>
   4012c:	00c00174 	movhi	r3,5
   40130:	18e62604 	addi	r3,r3,-26472
   40134:	e0bffd17 	ldw	r2,-12(fp)
   40138:	100490fa 	slli	r2,r2,3
   4013c:	1885883a 	add	r2,r3,r2
   40140:	10c00017 	ldw	r3,0(r2)
   40144:	01000174 	movhi	r4,5
   40148:	21262604 	addi	r4,r4,-26472
   4014c:	e0bffd17 	ldw	r2,-12(fp)
   40150:	100490fa 	slli	r2,r2,3
   40154:	2085883a 	add	r2,r4,r2
   40158:	10800104 	addi	r2,r2,4
   4015c:	10800017 	ldw	r2,0(r2)
   40160:	1009883a 	mov	r4,r2
   40164:	183ee83a 	callr	r3
   40168:	0001883a 	nop
   4016c:	0005313a 	rdctl	r2,ipending
   40170:	e0bfff15 	stw	r2,-4(fp)
   40174:	e0bfff17 	ldw	r2,-4(fp)
   40178:	e0bffb15 	stw	r2,-20(fp)
   4017c:	e0bffb17 	ldw	r2,-20(fp)
   40180:	103fe31e 	bne	r2,zero,40110 <_gp+0xfffef158>
   40184:	00000706 	br	401a4 <alt_irq_handler+0xb8>
   40188:	e0bffc17 	ldw	r2,-16(fp)
   4018c:	1085883a 	add	r2,r2,r2
   40190:	e0bffc15 	stw	r2,-16(fp)
   40194:	e0bffd17 	ldw	r2,-12(fp)
   40198:	10800044 	addi	r2,r2,1
   4019c:	e0bffd15 	stw	r2,-12(fp)
   401a0:	003fde06 	br	4011c <_gp+0xfffef164>
   401a4:	e037883a 	mov	sp,fp
   401a8:	dfc00117 	ldw	ra,4(sp)
   401ac:	df000017 	ldw	fp,0(sp)
   401b0:	dec00204 	addi	sp,sp,8
   401b4:	f800283a 	ret

Disassembly of section .text:

000401b8 <_start>:
   401b8:	06c00134 	movhi	sp,4
   401bc:	dee80014 	ori	sp,sp,40960
   401c0:	06800174 	movhi	gp,5
   401c4:	d683ee14 	ori	gp,gp,4024
   401c8:	00800134 	movhi	r2,4
   401cc:	10a40114 	ori	r2,r2,36868
   401d0:	00c00134 	movhi	r3,4
   401d4:	18e66614 	ori	r3,r3,39320
   401d8:	10c00326 	beq	r2,r3,401e8 <_start+0x30>
   401dc:	10000015 	stw	zero,0(r2)
   401e0:	10800104 	addi	r2,r2,4
   401e4:	10fffd36 	bltu	r2,r3,401dc <_gp+0xfffef224>
   401e8:	00449d80 	call	449d8 <alt_main>

000401ec <alt_after_alt_main>:
   401ec:	003fff06 	br	401ec <_gp+0xfffef234>

000401f0 <InitUart1>:
   401f0:	defffc04 	addi	sp,sp,-16
   401f4:	dfc00315 	stw	ra,12(sp)
   401f8:	df000215 	stw	fp,8(sp)
   401fc:	df000204 	addi	fp,sp,8
   40200:	e13fff15 	stw	r4,-4(fp)
   40204:	e13fff17 	ldw	r4,-4(fp)
   40208:	00415dc0 	call	415dc <__floatunsisf>
   4020c:	1007883a 	mov	r3,r2
   40210:	01130ff4 	movhi	r4,19519
   40214:	212f0804 	addi	r4,r4,-17376
   40218:	180b883a 	mov	r5,r3
   4021c:	004145c0 	call	4145c <__divsf3>
   40220:	1007883a 	mov	r3,r2
   40224:	1805883a 	mov	r2,r3
   40228:	1009883a 	mov	r4,r2
   4022c:	00415980 	call	41598 <__extendsfdf2>
   40230:	100b883a 	mov	r5,r2
   40234:	180d883a 	mov	r6,r3
   40238:	2809883a 	mov	r4,r5
   4023c:	300b883a 	mov	r5,r6
   40240:	000d883a 	mov	r6,zero
   40244:	01cff834 	movhi	r7,16352
   40248:	0041a040 	call	41a04 <__adddf3>
   4024c:	1009883a 	mov	r4,r2
   40250:	180b883a 	mov	r5,r3
   40254:	2005883a 	mov	r2,r4
   40258:	2807883a 	mov	r3,r5
   4025c:	1009883a 	mov	r4,r2
   40260:	180b883a 	mov	r5,r3
   40264:	0041ab80 	call	41ab8 <__fixdfsi>
   40268:	e0bffe15 	stw	r2,-8(fp)
   4026c:	e0fffe17 	ldw	r3,-8(fp)
   40270:	00880404 	movi	r2,8208
   40274:	10c00035 	stwio	r3,0(r2)
   40278:	00c02004 	movi	r3,128
   4027c:	00880304 	movi	r2,8204
   40280:	10c00035 	stwio	r3,0(r2)
   40284:	e037883a 	mov	sp,fp
   40288:	dfc00117 	ldw	ra,4(sp)
   4028c:	df000017 	ldw	fp,0(sp)
   40290:	dec00204 	addi	sp,sp,8
   40294:	f800283a 	ret

00040298 <IsrUart1>:
   40298:	defffb04 	addi	sp,sp,-20
   4029c:	dfc00415 	stw	ra,16(sp)
   402a0:	df000315 	stw	fp,12(sp)
   402a4:	df000304 	addi	fp,sp,12
   402a8:	e13fff15 	stw	r4,-4(fp)
   402ac:	00880204 	movi	r2,8200
   402b0:	10800037 	ldwio	r2,0(r2)
   402b4:	e0bffd15 	stw	r2,-12(fp)
   402b8:	d0a0140b 	ldhu	r2,-32688(gp)
   402bc:	10bfffcc 	andi	r2,r2,65535
   402c0:	00c80004 	movi	r3,8192
   402c4:	18c00037 	ldwio	r3,0(r3)
   402c8:	01000174 	movhi	r4,5
   402cc:	21241904 	addi	r4,r4,-28572
   402d0:	2085883a 	add	r2,r4,r2
   402d4:	10c00005 	stb	r3,0(r2)
   402d8:	d0a0140b 	ldhu	r2,-32688(gp)
   402dc:	10bfffcc 	andi	r2,r2,65535
   402e0:	00c00174 	movhi	r3,5
   402e4:	18e41904 	addi	r3,r3,-28572
   402e8:	1885883a 	add	r2,r3,r2
   402ec:	10800003 	ldbu	r2,0(r2)
   402f0:	e0bffe05 	stb	r2,-8(fp)
   402f4:	0007883a 	mov	r3,zero
   402f8:	00880204 	movi	r2,8200
   402fc:	10c00035 	stwio	r3,0(r2)
   40300:	d0a0140b 	ldhu	r2,-32688(gp)
   40304:	10800044 	addi	r2,r2,1
   40308:	d0a0140d 	sth	r2,-32688(gp)
   4030c:	d0a0140b 	ldhu	r2,-32688(gp)
   40310:	10bfffcc 	andi	r2,r2,65535
   40314:	10810030 	cmpltui	r2,r2,1024
   40318:	1000011e 	bne	r2,zero,40320 <IsrUart1+0x88>
   4031c:	d020140d 	sth	zero,-32688(gp)
   40320:	e0bffe03 	ldbu	r2,-8(fp)
   40324:	10800298 	cmpnei	r2,r2,10
   40328:	1000021e 	bne	r2,zero,40334 <IsrUart1+0x9c>
   4032c:	00800044 	movi	r2,1
   40330:	d0a01505 	stb	r2,-32684(gp)
   40334:	e0bffe03 	ldbu	r2,-8(fp)
   40338:	01000134 	movhi	r4,4
   4033c:	211cb604 	addi	r4,r4,29400
   40340:	100b883a 	mov	r5,r2
   40344:	0044a800 	call	44a80 <alt_printf>
   40348:	e0bffd17 	ldw	r2,-12(fp)
   4034c:	1080100c 	andi	r2,r2,64
   40350:	10001c26 	beq	r2,zero,403c4 <IsrUart1+0x12c>
   40354:	00880304 	movi	r2,8204
   40358:	10800037 	ldwio	r2,0(r2)
   4035c:	d0e0138b 	ldhu	r3,-32690(gp)
   40360:	d0a0130b 	ldhu	r2,-32692(gp)
   40364:	18ffffcc 	andi	r3,r3,65535
   40368:	10bfffcc 	andi	r2,r2,65535
   4036c:	18801226 	beq	r3,r2,403b8 <IsrUart1+0x120>
   40370:	d0a0138b 	ldhu	r2,-32690(gp)
   40374:	10bfffcc 	andi	r2,r2,65535
   40378:	00c00174 	movhi	r3,5
   4037c:	18e51904 	addi	r3,r3,-27548
   40380:	1885883a 	add	r2,r3,r2
   40384:	10800003 	ldbu	r2,0(r2)
   40388:	10c03fcc 	andi	r3,r2,255
   4038c:	00880104 	movi	r2,8196
   40390:	10c00035 	stwio	r3,0(r2)
   40394:	d0a0138b 	ldhu	r2,-32690(gp)
   40398:	10800044 	addi	r2,r2,1
   4039c:	d0a0138d 	sth	r2,-32690(gp)
   403a0:	d0a0138b 	ldhu	r2,-32690(gp)
   403a4:	10bfffcc 	andi	r2,r2,65535
   403a8:	10810030 	cmpltui	r2,r2,1024
   403ac:	1000051e 	bne	r2,zero,403c4 <IsrUart1+0x12c>
   403b0:	d020138d 	sth	zero,-32690(gp)
   403b4:	00000306 	br	403c4 <IsrUart1+0x12c>
   403b8:	00c02004 	movi	r3,128
   403bc:	00880304 	movi	r2,8204
   403c0:	10c00035 	stwio	r3,0(r2)
   403c4:	e037883a 	mov	sp,fp
   403c8:	dfc00117 	ldw	ra,4(sp)
   403cc:	df000017 	ldw	fp,0(sp)
   403d0:	dec00204 	addi	sp,sp,8
   403d4:	f800283a 	ret

000403d8 <EmptyUart1>:
   403d8:	deffff04 	addi	sp,sp,-4
   403dc:	df000015 	stw	fp,0(sp)
   403e0:	d839883a 	mov	fp,sp
   403e4:	d0e0140b 	ldhu	r3,-32688(gp)
   403e8:	d0a0148b 	ldhu	r2,-32686(gp)
   403ec:	18ffffcc 	andi	r3,r3,65535
   403f0:	10bfffcc 	andi	r2,r2,65535
   403f4:	1880021e 	bne	r3,r2,40400 <EmptyUart1+0x28>
   403f8:	00800044 	movi	r2,1
   403fc:	00000106 	br	40404 <EmptyUart1+0x2c>
   40400:	0005883a 	mov	r2,zero
   40404:	e037883a 	mov	sp,fp
   40408:	df000017 	ldw	fp,0(sp)
   4040c:	dec00104 	addi	sp,sp,4
   40410:	f800283a 	ret

00040414 <flush_rx_buffer>:
   40414:	deffff04 	addi	sp,sp,-4
   40418:	df000015 	stw	fp,0(sp)
   4041c:	d839883a 	mov	fp,sp
   40420:	d0a0148b 	ldhu	r2,-32686(gp)
   40424:	d0a0140d 	sth	r2,-32688(gp)
   40428:	e037883a 	mov	sp,fp
   4042c:	df000017 	ldw	fp,0(sp)
   40430:	dec00104 	addi	sp,sp,4
   40434:	f800283a 	ret

00040438 <GetUart1>:
   40438:	defffe04 	addi	sp,sp,-8
   4043c:	df000115 	stw	fp,4(sp)
   40440:	df000104 	addi	fp,sp,4
   40444:	d0a0148b 	ldhu	r2,-32686(gp)
   40448:	10bfffcc 	andi	r2,r2,65535
   4044c:	00c00174 	movhi	r3,5
   40450:	18e41904 	addi	r3,r3,-28572
   40454:	1885883a 	add	r2,r3,r2
   40458:	10800003 	ldbu	r2,0(r2)
   4045c:	e0bfff05 	stb	r2,-4(fp)
   40460:	d0a0148b 	ldhu	r2,-32686(gp)
   40464:	10800044 	addi	r2,r2,1
   40468:	d0a0148d 	sth	r2,-32686(gp)
   4046c:	d0a0148b 	ldhu	r2,-32686(gp)
   40470:	10bfffcc 	andi	r2,r2,65535
   40474:	10810030 	cmpltui	r2,r2,1024
   40478:	1000011e 	bne	r2,zero,40480 <GetUart1+0x48>
   4047c:	d020148d 	sth	zero,-32686(gp)
   40480:	e0bfff03 	ldbu	r2,-4(fp)
   40484:	e037883a 	mov	sp,fp
   40488:	df000017 	ldw	fp,0(sp)
   4048c:	dec00104 	addi	sp,sp,4
   40490:	f800283a 	ret

00040494 <PutUart1>:
   40494:	defffb04 	addi	sp,sp,-20
   40498:	dfc00415 	stw	ra,16(sp)
   4049c:	df000315 	stw	fp,12(sp)
   404a0:	df000304 	addi	fp,sp,12
   404a4:	2005883a 	mov	r2,r4
   404a8:	e0bfff05 	stb	r2,-4(fp)
   404ac:	00880204 	movi	r2,8200
   404b0:	10800037 	ldwio	r2,0(r2)
   404b4:	1080100c 	andi	r2,r2,64
   404b8:	e0bffe15 	stw	r2,-8(fp)
   404bc:	d0e0130b 	ldhu	r3,-32692(gp)
   404c0:	d0a0138b 	ldhu	r2,-32690(gp)
   404c4:	18ffffcc 	andi	r3,r3,65535
   404c8:	10bfffcc 	andi	r2,r2,65535
   404cc:	1880061e 	bne	r3,r2,404e8 <PutUart1+0x54>
   404d0:	e0bffe17 	ldw	r2,-8(fp)
   404d4:	10000426 	beq	r2,zero,404e8 <PutUart1+0x54>
   404d8:	e0ffff03 	ldbu	r3,-4(fp)
   404dc:	00880104 	movi	r2,8196
   404e0:	10c00035 	stwio	r3,0(r2)
   404e4:	00002a06 	br	40590 <PutUart1+0xfc>
   404e8:	d0e0130b 	ldhu	r3,-32692(gp)
   404ec:	d0a0138b 	ldhu	r2,-32690(gp)
   404f0:	18ffffcc 	andi	r3,r3,65535
   404f4:	10bfffcc 	andi	r2,r2,65535
   404f8:	18800536 	bltu	r3,r2,40510 <PutUart1+0x7c>
   404fc:	d0e0130b 	ldhu	r3,-32692(gp)
   40500:	d0a0138b 	ldhu	r2,-32690(gp)
   40504:	1885c83a 	sub	r2,r3,r2
   40508:	e0bffd0d 	sth	r2,-12(fp)
   4050c:	00000506 	br	40524 <PutUart1+0x90>
   40510:	d0e0130b 	ldhu	r3,-32692(gp)
   40514:	d0a0138b 	ldhu	r2,-32690(gp)
   40518:	1885c83a 	sub	r2,r3,r2
   4051c:	1080ffc4 	addi	r2,r2,1023
   40520:	e0bffd0d 	sth	r2,-12(fp)
   40524:	e0bffd0b 	ldhu	r2,-12(fp)
   40528:	1080ffb0 	cmpltui	r2,r2,1022
   4052c:	1000021e 	bne	r2,zero,40538 <PutUart1+0xa4>
   40530:	00bfffc4 	movi	r2,-1
   40534:	00001c06 	br	405a8 <PutUart1+0x114>
   40538:	d0a0130b 	ldhu	r2,-32692(gp)
   4053c:	10bfffcc 	andi	r2,r2,65535
   40540:	00c00174 	movhi	r3,5
   40544:	18e51904 	addi	r3,r3,-27548
   40548:	1885883a 	add	r2,r3,r2
   4054c:	e0ffff03 	ldbu	r3,-4(fp)
   40550:	10c00005 	stb	r3,0(r2)
   40554:	d0a0130b 	ldhu	r2,-32692(gp)
   40558:	10800044 	addi	r2,r2,1
   4055c:	d0a0130d 	sth	r2,-32692(gp)
   40560:	d0a0130b 	ldhu	r2,-32692(gp)
   40564:	10bfffcc 	andi	r2,r2,65535
   40568:	10810030 	cmpltui	r2,r2,1024
   4056c:	1000011e 	bne	r2,zero,40574 <PutUart1+0xe0>
   40570:	d020130d 	sth	zero,-32692(gp)
   40574:	00880304 	movi	r2,8204
   40578:	10800037 	ldwio	r2,0(r2)
   4057c:	10801014 	ori	r2,r2,64
   40580:	e0bffe15 	stw	r2,-8(fp)
   40584:	e0fffe17 	ldw	r3,-8(fp)
   40588:	00880304 	movi	r2,8204
   4058c:	10c00035 	stwio	r3,0(r2)
   40590:	e0bfff03 	ldbu	r2,-4(fp)
   40594:	01000134 	movhi	r4,4
   40598:	211cb604 	addi	r4,r4,29400
   4059c:	100b883a 	mov	r5,r2
   405a0:	0044a800 	call	44a80 <alt_printf>
   405a4:	00800044 	movi	r2,1
   405a8:	e037883a 	mov	sp,fp
   405ac:	dfc00117 	ldw	ra,4(sp)
   405b0:	df000017 	ldw	fp,0(sp)
   405b4:	dec00204 	addi	sp,sp,8
   405b8:	f800283a 	ret

000405bc <printchar>:
   405bc:	defffc04 	addi	sp,sp,-16
   405c0:	dfc00315 	stw	ra,12(sp)
   405c4:	df000215 	stw	fp,8(sp)
   405c8:	df000204 	addi	fp,sp,8
   405cc:	e13ffe15 	stw	r4,-8(fp)
   405d0:	e17fff15 	stw	r5,-4(fp)
   405d4:	e0bffe17 	ldw	r2,-8(fp)
   405d8:	10000a26 	beq	r2,zero,40604 <printchar+0x48>
   405dc:	e0bffe17 	ldw	r2,-8(fp)
   405e0:	10800017 	ldw	r2,0(r2)
   405e4:	e0ffff17 	ldw	r3,-4(fp)
   405e8:	10c00005 	stb	r3,0(r2)
   405ec:	e0bffe17 	ldw	r2,-8(fp)
   405f0:	10800017 	ldw	r2,0(r2)
   405f4:	10c00044 	addi	r3,r2,1
   405f8:	e0bffe17 	ldw	r2,-8(fp)
   405fc:	10c00015 	stw	r3,0(r2)
   40600:	00000706 	br	40620 <printchar+0x64>
   40604:	00800174 	movhi	r2,5
   40608:	10a3f404 	addi	r2,r2,-28720
   4060c:	10800017 	ldw	r2,0(r2)
   40610:	10800217 	ldw	r2,8(r2)
   40614:	e13fff17 	ldw	r4,-4(fp)
   40618:	100b883a 	mov	r5,r2
   4061c:	00424f40 	call	424f4 <putc>
   40620:	e037883a 	mov	sp,fp
   40624:	dfc00117 	ldw	ra,4(sp)
   40628:	df000017 	ldw	fp,0(sp)
   4062c:	dec00204 	addi	sp,sp,8
   40630:	f800283a 	ret

00040634 <prints>:
   40634:	defff604 	addi	sp,sp,-40
   40638:	dfc00915 	stw	ra,36(sp)
   4063c:	df000815 	stw	fp,32(sp)
   40640:	dcc00715 	stw	r19,28(sp)
   40644:	dc800615 	stw	r18,24(sp)
   40648:	dc400515 	stw	r17,20(sp)
   4064c:	dc000415 	stw	r16,16(sp)
   40650:	df000404 	addi	fp,sp,16
   40654:	e13ffc15 	stw	r4,-16(fp)
   40658:	e17ffd15 	stw	r5,-12(fp)
   4065c:	e1bffe15 	stw	r6,-8(fp)
   40660:	e1ffff15 	stw	r7,-4(fp)
   40664:	0021883a 	mov	r16,zero
   40668:	04800804 	movi	r18,32
   4066c:	e0bffe17 	ldw	r2,-8(fp)
   40670:	0080150e 	bge	zero,r2,406c8 <prints+0x94>
   40674:	0023883a 	mov	r17,zero
   40678:	e4fffd17 	ldw	r19,-12(fp)
   4067c:	00000206 	br	40688 <prints+0x54>
   40680:	8c400044 	addi	r17,r17,1
   40684:	9cc00044 	addi	r19,r19,1
   40688:	98800003 	ldbu	r2,0(r19)
   4068c:	10803fcc 	andi	r2,r2,255
   40690:	1080201c 	xori	r2,r2,128
   40694:	10bfe004 	addi	r2,r2,-128
   40698:	103ff91e 	bne	r2,zero,40680 <_gp+0xfffef6c8>
   4069c:	e0bffe17 	ldw	r2,-8(fp)
   406a0:	88800216 	blt	r17,r2,406ac <prints+0x78>
   406a4:	e03ffe15 	stw	zero,-8(fp)
   406a8:	00000306 	br	406b8 <prints+0x84>
   406ac:	e0bffe17 	ldw	r2,-8(fp)
   406b0:	1445c83a 	sub	r2,r2,r17
   406b4:	e0bffe15 	stw	r2,-8(fp)
   406b8:	e0bfff17 	ldw	r2,-4(fp)
   406bc:	1080008c 	andi	r2,r2,2
   406c0:	10000126 	beq	r2,zero,406c8 <prints+0x94>
   406c4:	04800c04 	movi	r18,48
   406c8:	e0bfff17 	ldw	r2,-4(fp)
   406cc:	1080004c 	andi	r2,r2,1
   406d0:	1000181e 	bne	r2,zero,40734 <prints+0x100>
   406d4:	00000706 	br	406f4 <prints+0xc0>
   406d8:	e13ffc17 	ldw	r4,-16(fp)
   406dc:	900b883a 	mov	r5,r18
   406e0:	00405bc0 	call	405bc <printchar>
   406e4:	84000044 	addi	r16,r16,1
   406e8:	e0bffe17 	ldw	r2,-8(fp)
   406ec:	10bfffc4 	addi	r2,r2,-1
   406f0:	e0bffe15 	stw	r2,-8(fp)
   406f4:	e0bffe17 	ldw	r2,-8(fp)
   406f8:	00bff716 	blt	zero,r2,406d8 <_gp+0xfffef720>
   406fc:	00000d06 	br	40734 <prints+0x100>
   40700:	e0bffd17 	ldw	r2,-12(fp)
   40704:	10800003 	ldbu	r2,0(r2)
   40708:	10803fcc 	andi	r2,r2,255
   4070c:	1080201c 	xori	r2,r2,128
   40710:	10bfe004 	addi	r2,r2,-128
   40714:	e13ffc17 	ldw	r4,-16(fp)
   40718:	100b883a 	mov	r5,r2
   4071c:	00405bc0 	call	405bc <printchar>
   40720:	84000044 	addi	r16,r16,1
   40724:	e0bffd17 	ldw	r2,-12(fp)
   40728:	10800044 	addi	r2,r2,1
   4072c:	e0bffd15 	stw	r2,-12(fp)
   40730:	00000106 	br	40738 <prints+0x104>
   40734:	0001883a 	nop
   40738:	e0bffd17 	ldw	r2,-12(fp)
   4073c:	10800003 	ldbu	r2,0(r2)
   40740:	10803fcc 	andi	r2,r2,255
   40744:	1080201c 	xori	r2,r2,128
   40748:	10bfe004 	addi	r2,r2,-128
   4074c:	103fec1e 	bne	r2,zero,40700 <_gp+0xfffef748>
   40750:	00000706 	br	40770 <prints+0x13c>
   40754:	e13ffc17 	ldw	r4,-16(fp)
   40758:	900b883a 	mov	r5,r18
   4075c:	00405bc0 	call	405bc <printchar>
   40760:	84000044 	addi	r16,r16,1
   40764:	e0bffe17 	ldw	r2,-8(fp)
   40768:	10bfffc4 	addi	r2,r2,-1
   4076c:	e0bffe15 	stw	r2,-8(fp)
   40770:	e0bffe17 	ldw	r2,-8(fp)
   40774:	00bff716 	blt	zero,r2,40754 <_gp+0xfffef79c>
   40778:	8005883a 	mov	r2,r16
   4077c:	e037883a 	mov	sp,fp
   40780:	dfc00517 	ldw	ra,20(sp)
   40784:	df000417 	ldw	fp,16(sp)
   40788:	dcc00317 	ldw	r19,12(sp)
   4078c:	dc800217 	ldw	r18,8(sp)
   40790:	dc400117 	ldw	r17,4(sp)
   40794:	dc000017 	ldw	r16,0(sp)
   40798:	dec00604 	addi	sp,sp,24
   4079c:	f800283a 	ret

000407a0 <printi>:
   407a0:	defff204 	addi	sp,sp,-56
   407a4:	dfc00d15 	stw	ra,52(sp)
   407a8:	df000c15 	stw	fp,48(sp)
   407ac:	dd000b15 	stw	r20,44(sp)
   407b0:	dcc00a15 	stw	r19,40(sp)
   407b4:	dc800915 	stw	r18,36(sp)
   407b8:	dc400815 	stw	r17,32(sp)
   407bc:	dc000715 	stw	r16,28(sp)
   407c0:	df000704 	addi	fp,sp,28
   407c4:	e13ffc15 	stw	r4,-16(fp)
   407c8:	e17ffd15 	stw	r5,-12(fp)
   407cc:	e1bffe15 	stw	r6,-8(fp)
   407d0:	e1ffff15 	stw	r7,-4(fp)
   407d4:	0029883a 	mov	r20,zero
   407d8:	0027883a 	mov	r19,zero
   407dc:	e47ffd17 	ldw	r17,-12(fp)
   407e0:	e0bffd17 	ldw	r2,-12(fp)
   407e4:	1000091e 	bne	r2,zero,4080c <printi+0x6c>
   407e8:	00800c04 	movi	r2,48
   407ec:	e0bff905 	stb	r2,-28(fp)
   407f0:	e03ff945 	stb	zero,-27(fp)
   407f4:	e13ffc17 	ldw	r4,-16(fp)
   407f8:	e17ff904 	addi	r5,fp,-28
   407fc:	e1800717 	ldw	r6,28(fp)
   40800:	e1c00817 	ldw	r7,32(fp)
   40804:	00406340 	call	40634 <prints>
   40808:	00003906 	br	408f0 <printi+0x150>
   4080c:	e0bfff17 	ldw	r2,-4(fp)
   40810:	10000926 	beq	r2,zero,40838 <printi+0x98>
   40814:	e0bffe17 	ldw	r2,-8(fp)
   40818:	10800298 	cmpnei	r2,r2,10
   4081c:	1000061e 	bne	r2,zero,40838 <printi+0x98>
   40820:	e0bffd17 	ldw	r2,-12(fp)
   40824:	1000040e 	bge	r2,zero,40838 <printi+0x98>
   40828:	05000044 	movi	r20,1
   4082c:	e0bffd17 	ldw	r2,-12(fp)
   40830:	0085c83a 	sub	r2,zero,r2
   40834:	1023883a 	mov	r17,r2
   40838:	e43ffbc4 	addi	r16,fp,-17
   4083c:	80000005 	stb	zero,0(r16)
   40840:	00001306 	br	40890 <printi+0xf0>
   40844:	e0bffe17 	ldw	r2,-8(fp)
   40848:	8809883a 	mov	r4,r17
   4084c:	100b883a 	mov	r5,r2
   40850:	0041cdc0 	call	41cdc <__umodsi3>
   40854:	1025883a 	mov	r18,r2
   40858:	90800290 	cmplti	r2,r18,10
   4085c:	1000031e 	bne	r2,zero,4086c <printi+0xcc>
   40860:	e0800917 	ldw	r2,36(fp)
   40864:	10bff184 	addi	r2,r2,-58
   40868:	90a5883a 	add	r18,r18,r2
   4086c:	843fffc4 	addi	r16,r16,-1
   40870:	9005883a 	mov	r2,r18
   40874:	10800c04 	addi	r2,r2,48
   40878:	80800005 	stb	r2,0(r16)
   4087c:	e0bffe17 	ldw	r2,-8(fp)
   40880:	8809883a 	mov	r4,r17
   40884:	100b883a 	mov	r5,r2
   40888:	0041cd40 	call	41cd4 <__udivsi3>
   4088c:	1023883a 	mov	r17,r2
   40890:	883fec1e 	bne	r17,zero,40844 <_gp+0xfffef88c>
   40894:	a0001026 	beq	r20,zero,408d8 <printi+0x138>
   40898:	e0800717 	ldw	r2,28(fp)
   4089c:	10000b26 	beq	r2,zero,408cc <printi+0x12c>
   408a0:	e0800817 	ldw	r2,32(fp)
   408a4:	1080008c 	andi	r2,r2,2
   408a8:	10000826 	beq	r2,zero,408cc <printi+0x12c>
   408ac:	e13ffc17 	ldw	r4,-16(fp)
   408b0:	01400b44 	movi	r5,45
   408b4:	00405bc0 	call	405bc <printchar>
   408b8:	9cc00044 	addi	r19,r19,1
   408bc:	e0800717 	ldw	r2,28(fp)
   408c0:	10bfffc4 	addi	r2,r2,-1
   408c4:	e0800715 	stw	r2,28(fp)
   408c8:	00000306 	br	408d8 <printi+0x138>
   408cc:	843fffc4 	addi	r16,r16,-1
   408d0:	00800b44 	movi	r2,45
   408d4:	80800005 	stb	r2,0(r16)
   408d8:	e13ffc17 	ldw	r4,-16(fp)
   408dc:	800b883a 	mov	r5,r16
   408e0:	e1800717 	ldw	r6,28(fp)
   408e4:	e1c00817 	ldw	r7,32(fp)
   408e8:	00406340 	call	40634 <prints>
   408ec:	14c5883a 	add	r2,r2,r19
   408f0:	e037883a 	mov	sp,fp
   408f4:	dfc00617 	ldw	ra,24(sp)
   408f8:	df000517 	ldw	fp,20(sp)
   408fc:	dd000417 	ldw	r20,16(sp)
   40900:	dcc00317 	ldw	r19,12(sp)
   40904:	dc800217 	ldw	r18,8(sp)
   40908:	dc400117 	ldw	r17,4(sp)
   4090c:	dc000017 	ldw	r16,0(sp)
   40910:	dec00704 	addi	sp,sp,28
   40914:	f800283a 	ret

00040918 <print>:
   40918:	defff304 	addi	sp,sp,-52
   4091c:	dfc00c15 	stw	ra,48(sp)
   40920:	df000b15 	stw	fp,44(sp)
   40924:	dcc00a15 	stw	r19,40(sp)
   40928:	dc800915 	stw	r18,36(sp)
   4092c:	dc400815 	stw	r17,32(sp)
   40930:	dc000715 	stw	r16,28(sp)
   40934:	df000704 	addi	fp,sp,28
   40938:	e13ffd15 	stw	r4,-12(fp)
   4093c:	e17ffe15 	stw	r5,-8(fp)
   40940:	e1bfff15 	stw	r6,-4(fp)
   40944:	0021883a 	mov	r16,zero
   40948:	0000e006 	br	40ccc <print+0x3b4>
   4094c:	e0bffe17 	ldw	r2,-8(fp)
   40950:	10800003 	ldbu	r2,0(r2)
   40954:	10803fcc 	andi	r2,r2,255
   40958:	1080201c 	xori	r2,r2,128
   4095c:	10bfe004 	addi	r2,r2,-128
   40960:	10800958 	cmpnei	r2,r2,37
   40964:	1000cd1e 	bne	r2,zero,40c9c <print+0x384>
   40968:	e0bffe17 	ldw	r2,-8(fp)
   4096c:	10800044 	addi	r2,r2,1
   40970:	e0bffe15 	stw	r2,-8(fp)
   40974:	0023883a 	mov	r17,zero
   40978:	8825883a 	mov	r18,r17
   4097c:	e0bffe17 	ldw	r2,-8(fp)
   40980:	10800003 	ldbu	r2,0(r2)
   40984:	10803fcc 	andi	r2,r2,255
   40988:	1080201c 	xori	r2,r2,128
   4098c:	10bfe004 	addi	r2,r2,-128
   40990:	1000d526 	beq	r2,zero,40ce8 <print+0x3d0>
   40994:	e0bffe17 	ldw	r2,-8(fp)
   40998:	10800003 	ldbu	r2,0(r2)
   4099c:	10803fcc 	andi	r2,r2,255
   409a0:	1080201c 	xori	r2,r2,128
   409a4:	10bfe004 	addi	r2,r2,-128
   409a8:	10800958 	cmpnei	r2,r2,37
   409ac:	1000ba26 	beq	r2,zero,40c98 <print+0x380>
   409b0:	e0bffe17 	ldw	r2,-8(fp)
   409b4:	10800003 	ldbu	r2,0(r2)
   409b8:	10803fcc 	andi	r2,r2,255
   409bc:	1080201c 	xori	r2,r2,128
   409c0:	10bfe004 	addi	r2,r2,-128
   409c4:	10800b58 	cmpnei	r2,r2,45
   409c8:	10000a1e 	bne	r2,zero,409f4 <print+0xdc>
   409cc:	e0bffe17 	ldw	r2,-8(fp)
   409d0:	10800044 	addi	r2,r2,1
   409d4:	e0bffe15 	stw	r2,-8(fp)
   409d8:	04400044 	movi	r17,1
   409dc:	00000506 	br	409f4 <print+0xdc>
   409e0:	e0bffe17 	ldw	r2,-8(fp)
   409e4:	10800044 	addi	r2,r2,1
   409e8:	e0bffe15 	stw	r2,-8(fp)
   409ec:	8c400094 	ori	r17,r17,2
   409f0:	00000106 	br	409f8 <print+0xe0>
   409f4:	0001883a 	nop
   409f8:	e0bffe17 	ldw	r2,-8(fp)
   409fc:	10800003 	ldbu	r2,0(r2)
   40a00:	10803fcc 	andi	r2,r2,255
   40a04:	1080201c 	xori	r2,r2,128
   40a08:	10bfe004 	addi	r2,r2,-128
   40a0c:	10800c20 	cmpeqi	r2,r2,48
   40a10:	103ff31e 	bne	r2,zero,409e0 <_gp+0xfffefa28>
   40a14:	00000e06 	br	40a50 <print+0x138>
   40a18:	9009883a 	mov	r4,r18
   40a1c:	01400284 	movi	r5,10
   40a20:	0041ce40 	call	41ce4 <__mulsi3>
   40a24:	1025883a 	mov	r18,r2
   40a28:	e0bffe17 	ldw	r2,-8(fp)
   40a2c:	10800003 	ldbu	r2,0(r2)
   40a30:	10803fcc 	andi	r2,r2,255
   40a34:	1080201c 	xori	r2,r2,128
   40a38:	10bfe004 	addi	r2,r2,-128
   40a3c:	10bff404 	addi	r2,r2,-48
   40a40:	90a5883a 	add	r18,r18,r2
   40a44:	e0bffe17 	ldw	r2,-8(fp)
   40a48:	10800044 	addi	r2,r2,1
   40a4c:	e0bffe15 	stw	r2,-8(fp)
   40a50:	e0bffe17 	ldw	r2,-8(fp)
   40a54:	10800003 	ldbu	r2,0(r2)
   40a58:	10803fcc 	andi	r2,r2,255
   40a5c:	1080201c 	xori	r2,r2,128
   40a60:	10bfe004 	addi	r2,r2,-128
   40a64:	10800c10 	cmplti	r2,r2,48
   40a68:	1000071e 	bne	r2,zero,40a88 <print+0x170>
   40a6c:	e0bffe17 	ldw	r2,-8(fp)
   40a70:	10800003 	ldbu	r2,0(r2)
   40a74:	10803fcc 	andi	r2,r2,255
   40a78:	1080201c 	xori	r2,r2,128
   40a7c:	10bfe004 	addi	r2,r2,-128
   40a80:	10800e90 	cmplti	r2,r2,58
   40a84:	103fe41e 	bne	r2,zero,40a18 <_gp+0xfffefa60>
   40a88:	e0bffe17 	ldw	r2,-8(fp)
   40a8c:	10800003 	ldbu	r2,0(r2)
   40a90:	10803fcc 	andi	r2,r2,255
   40a94:	1080201c 	xori	r2,r2,128
   40a98:	10bfe004 	addi	r2,r2,-128
   40a9c:	10801cd8 	cmpnei	r2,r2,115
   40aa0:	1000111e 	bne	r2,zero,40ae8 <print+0x1d0>
   40aa4:	e0bfff17 	ldw	r2,-4(fp)
   40aa8:	10c00104 	addi	r3,r2,4
   40aac:	e0ffff15 	stw	r3,-4(fp)
   40ab0:	10800017 	ldw	r2,0(r2)
   40ab4:	1027883a 	mov	r19,r2
   40ab8:	98000226 	beq	r19,zero,40ac4 <print+0x1ac>
   40abc:	9805883a 	mov	r2,r19
   40ac0:	00000206 	br	40acc <print+0x1b4>
   40ac4:	00800134 	movhi	r2,4
   40ac8:	109cb704 	addi	r2,r2,29404
   40acc:	e13ffd17 	ldw	r4,-12(fp)
   40ad0:	100b883a 	mov	r5,r2
   40ad4:	900d883a 	mov	r6,r18
   40ad8:	880f883a 	mov	r7,r17
   40adc:	00406340 	call	40634 <prints>
   40ae0:	80a1883a 	add	r16,r16,r2
   40ae4:	00007606 	br	40cc0 <print+0x3a8>
   40ae8:	e0bffe17 	ldw	r2,-8(fp)
   40aec:	10800003 	ldbu	r2,0(r2)
   40af0:	10803fcc 	andi	r2,r2,255
   40af4:	1080201c 	xori	r2,r2,128
   40af8:	10bfe004 	addi	r2,r2,-128
   40afc:	10801918 	cmpnei	r2,r2,100
   40b00:	10000f1e 	bne	r2,zero,40b40 <print+0x228>
   40b04:	e0bfff17 	ldw	r2,-4(fp)
   40b08:	10c00104 	addi	r3,r2,4
   40b0c:	e0ffff15 	stw	r3,-4(fp)
   40b10:	10800017 	ldw	r2,0(r2)
   40b14:	dc800015 	stw	r18,0(sp)
   40b18:	dc400115 	stw	r17,4(sp)
   40b1c:	00c01844 	movi	r3,97
   40b20:	d8c00215 	stw	r3,8(sp)
   40b24:	e13ffd17 	ldw	r4,-12(fp)
   40b28:	100b883a 	mov	r5,r2
   40b2c:	01800284 	movi	r6,10
   40b30:	01c00044 	movi	r7,1
   40b34:	00407a00 	call	407a0 <printi>
   40b38:	80a1883a 	add	r16,r16,r2
   40b3c:	00006006 	br	40cc0 <print+0x3a8>
   40b40:	e0bffe17 	ldw	r2,-8(fp)
   40b44:	10800003 	ldbu	r2,0(r2)
   40b48:	10803fcc 	andi	r2,r2,255
   40b4c:	1080201c 	xori	r2,r2,128
   40b50:	10bfe004 	addi	r2,r2,-128
   40b54:	10801e18 	cmpnei	r2,r2,120
   40b58:	10000f1e 	bne	r2,zero,40b98 <print+0x280>
   40b5c:	e0bfff17 	ldw	r2,-4(fp)
   40b60:	10c00104 	addi	r3,r2,4
   40b64:	e0ffff15 	stw	r3,-4(fp)
   40b68:	10800017 	ldw	r2,0(r2)
   40b6c:	dc800015 	stw	r18,0(sp)
   40b70:	dc400115 	stw	r17,4(sp)
   40b74:	00c01844 	movi	r3,97
   40b78:	d8c00215 	stw	r3,8(sp)
   40b7c:	e13ffd17 	ldw	r4,-12(fp)
   40b80:	100b883a 	mov	r5,r2
   40b84:	01800404 	movi	r6,16
   40b88:	000f883a 	mov	r7,zero
   40b8c:	00407a00 	call	407a0 <printi>
   40b90:	80a1883a 	add	r16,r16,r2
   40b94:	00004a06 	br	40cc0 <print+0x3a8>
   40b98:	e0bffe17 	ldw	r2,-8(fp)
   40b9c:	10800003 	ldbu	r2,0(r2)
   40ba0:	10803fcc 	andi	r2,r2,255
   40ba4:	1080201c 	xori	r2,r2,128
   40ba8:	10bfe004 	addi	r2,r2,-128
   40bac:	10801618 	cmpnei	r2,r2,88
   40bb0:	10000f1e 	bne	r2,zero,40bf0 <print+0x2d8>
   40bb4:	e0bfff17 	ldw	r2,-4(fp)
   40bb8:	10c00104 	addi	r3,r2,4
   40bbc:	e0ffff15 	stw	r3,-4(fp)
   40bc0:	10800017 	ldw	r2,0(r2)
   40bc4:	dc800015 	stw	r18,0(sp)
   40bc8:	dc400115 	stw	r17,4(sp)
   40bcc:	00c01044 	movi	r3,65
   40bd0:	d8c00215 	stw	r3,8(sp)
   40bd4:	e13ffd17 	ldw	r4,-12(fp)
   40bd8:	100b883a 	mov	r5,r2
   40bdc:	01800404 	movi	r6,16
   40be0:	000f883a 	mov	r7,zero
   40be4:	00407a00 	call	407a0 <printi>
   40be8:	80a1883a 	add	r16,r16,r2
   40bec:	00003406 	br	40cc0 <print+0x3a8>
   40bf0:	e0bffe17 	ldw	r2,-8(fp)
   40bf4:	10800003 	ldbu	r2,0(r2)
   40bf8:	10803fcc 	andi	r2,r2,255
   40bfc:	1080201c 	xori	r2,r2,128
   40c00:	10bfe004 	addi	r2,r2,-128
   40c04:	10801d58 	cmpnei	r2,r2,117
   40c08:	10000f1e 	bne	r2,zero,40c48 <print+0x330>
   40c0c:	e0bfff17 	ldw	r2,-4(fp)
   40c10:	10c00104 	addi	r3,r2,4
   40c14:	e0ffff15 	stw	r3,-4(fp)
   40c18:	10800017 	ldw	r2,0(r2)
   40c1c:	dc800015 	stw	r18,0(sp)
   40c20:	dc400115 	stw	r17,4(sp)
   40c24:	00c01844 	movi	r3,97
   40c28:	d8c00215 	stw	r3,8(sp)
   40c2c:	e13ffd17 	ldw	r4,-12(fp)
   40c30:	100b883a 	mov	r5,r2
   40c34:	01800284 	movi	r6,10
   40c38:	000f883a 	mov	r7,zero
   40c3c:	00407a00 	call	407a0 <printi>
   40c40:	80a1883a 	add	r16,r16,r2
   40c44:	00001e06 	br	40cc0 <print+0x3a8>
   40c48:	e0bffe17 	ldw	r2,-8(fp)
   40c4c:	10800003 	ldbu	r2,0(r2)
   40c50:	10803fcc 	andi	r2,r2,255
   40c54:	1080201c 	xori	r2,r2,128
   40c58:	10bfe004 	addi	r2,r2,-128
   40c5c:	108018d8 	cmpnei	r2,r2,99
   40c60:	1000171e 	bne	r2,zero,40cc0 <print+0x3a8>
   40c64:	e0bfff17 	ldw	r2,-4(fp)
   40c68:	10c00104 	addi	r3,r2,4
   40c6c:	e0ffff15 	stw	r3,-4(fp)
   40c70:	10800017 	ldw	r2,0(r2)
   40c74:	e0bffc05 	stb	r2,-16(fp)
   40c78:	e03ffc45 	stb	zero,-15(fp)
   40c7c:	e13ffd17 	ldw	r4,-12(fp)
   40c80:	e17ffc04 	addi	r5,fp,-16
   40c84:	900d883a 	mov	r6,r18
   40c88:	880f883a 	mov	r7,r17
   40c8c:	00406340 	call	40634 <prints>
   40c90:	80a1883a 	add	r16,r16,r2
   40c94:	00000a06 	br	40cc0 <print+0x3a8>
   40c98:	0001883a 	nop
   40c9c:	e0bffe17 	ldw	r2,-8(fp)
   40ca0:	10800003 	ldbu	r2,0(r2)
   40ca4:	10803fcc 	andi	r2,r2,255
   40ca8:	1080201c 	xori	r2,r2,128
   40cac:	10bfe004 	addi	r2,r2,-128
   40cb0:	e13ffd17 	ldw	r4,-12(fp)
   40cb4:	100b883a 	mov	r5,r2
   40cb8:	00405bc0 	call	405bc <printchar>
   40cbc:	84000044 	addi	r16,r16,1
   40cc0:	e0bffe17 	ldw	r2,-8(fp)
   40cc4:	10800044 	addi	r2,r2,1
   40cc8:	e0bffe15 	stw	r2,-8(fp)
   40ccc:	e0bffe17 	ldw	r2,-8(fp)
   40cd0:	10800003 	ldbu	r2,0(r2)
   40cd4:	10803fcc 	andi	r2,r2,255
   40cd8:	1080201c 	xori	r2,r2,128
   40cdc:	10bfe004 	addi	r2,r2,-128
   40ce0:	103f1a1e 	bne	r2,zero,4094c <_gp+0xfffef994>
   40ce4:	00000106 	br	40cec <print+0x3d4>
   40ce8:	0001883a 	nop
   40cec:	e0bffd17 	ldw	r2,-12(fp)
   40cf0:	10000326 	beq	r2,zero,40d00 <print+0x3e8>
   40cf4:	e0bffd17 	ldw	r2,-12(fp)
   40cf8:	10800017 	ldw	r2,0(r2)
   40cfc:	10000005 	stb	zero,0(r2)
   40d00:	8005883a 	mov	r2,r16
   40d04:	e037883a 	mov	sp,fp
   40d08:	dfc00517 	ldw	ra,20(sp)
   40d0c:	df000417 	ldw	fp,16(sp)
   40d10:	dcc00317 	ldw	r19,12(sp)
   40d14:	dc800217 	ldw	r18,8(sp)
   40d18:	dc400117 	ldw	r17,4(sp)
   40d1c:	dc000017 	ldw	r16,0(sp)
   40d20:	dec00604 	addi	sp,sp,24
   40d24:	f800283a 	ret

00040d28 <raw_printf>:
   40d28:	defff904 	addi	sp,sp,-28
   40d2c:	dfc00315 	stw	ra,12(sp)
   40d30:	df000215 	stw	fp,8(sp)
   40d34:	df000204 	addi	fp,sp,8
   40d38:	e1400215 	stw	r5,8(fp)
   40d3c:	e1800315 	stw	r6,12(fp)
   40d40:	e1c00415 	stw	r7,16(fp)
   40d44:	e13fff15 	stw	r4,-4(fp)
   40d48:	e0800204 	addi	r2,fp,8
   40d4c:	e0bffe15 	stw	r2,-8(fp)
   40d50:	e0bffe17 	ldw	r2,-8(fp)
   40d54:	0009883a 	mov	r4,zero
   40d58:	e17fff17 	ldw	r5,-4(fp)
   40d5c:	100d883a 	mov	r6,r2
   40d60:	00409180 	call	40918 <print>
   40d64:	e037883a 	mov	sp,fp
   40d68:	dfc00117 	ldw	ra,4(sp)
   40d6c:	df000017 	ldw	fp,0(sp)
   40d70:	dec00504 	addi	sp,sp,20
   40d74:	f800283a 	ret

00040d78 <raw_sprintf>:
   40d78:	defff904 	addi	sp,sp,-28
   40d7c:	dfc00415 	stw	ra,16(sp)
   40d80:	df000315 	stw	fp,12(sp)
   40d84:	df000304 	addi	fp,sp,12
   40d88:	e13ffe15 	stw	r4,-8(fp)
   40d8c:	e1800215 	stw	r6,8(fp)
   40d90:	e1c00315 	stw	r7,12(fp)
   40d94:	e17fff15 	stw	r5,-4(fp)
   40d98:	e0800204 	addi	r2,fp,8
   40d9c:	e0bffd15 	stw	r2,-12(fp)
   40da0:	e0bffd17 	ldw	r2,-12(fp)
   40da4:	e0fffe04 	addi	r3,fp,-8
   40da8:	1809883a 	mov	r4,r3
   40dac:	e17fff17 	ldw	r5,-4(fp)
   40db0:	100d883a 	mov	r6,r2
   40db4:	00409180 	call	40918 <print>
   40db8:	e037883a 	mov	sp,fp
   40dbc:	dfc00117 	ldw	ra,4(sp)
   40dc0:	df000017 	ldw	fp,0(sp)
   40dc4:	dec00404 	addi	sp,sp,16
   40dc8:	f800283a 	ret

00040dcc <InitUart>:
   40dcc:	defffc04 	addi	sp,sp,-16
   40dd0:	dfc00315 	stw	ra,12(sp)
   40dd4:	df000215 	stw	fp,8(sp)
   40dd8:	df000204 	addi	fp,sp,8
   40ddc:	d0a01604 	addi	r2,gp,-32680
   40de0:	e0bfff15 	stw	r2,-4(fp)
   40de4:	01096004 	movi	r4,9600
   40de8:	00401f00 	call	401f0 <InitUart1>
   40dec:	d8000015 	stw	zero,0(sp)
   40df0:	0009883a 	mov	r4,zero
   40df4:	01400044 	movi	r5,1
   40df8:	01800134 	movhi	r6,4
   40dfc:	3180a604 	addi	r6,r6,664
   40e00:	e1ffff17 	ldw	r7,-4(fp)
   40e04:	00444f80 	call	444f8 <alt_ic_isr_register>
   40e08:	0009883a 	mov	r4,zero
   40e0c:	01400044 	movi	r5,1
   40e10:	00445480 	call	44548 <alt_ic_irq_enable>
   40e14:	e037883a 	mov	sp,fp
   40e18:	dfc00117 	ldw	ra,4(sp)
   40e1c:	df000017 	ldw	fp,0(sp)
   40e20:	dec00204 	addi	sp,sp,8
   40e24:	f800283a 	ret

00040e28 <putc_uart0>:
   40e28:	defffd04 	addi	sp,sp,-12
   40e2c:	dfc00215 	stw	ra,8(sp)
   40e30:	df000115 	stw	fp,4(sp)
   40e34:	df000104 	addi	fp,sp,4
   40e38:	2005883a 	mov	r2,r4
   40e3c:	e0bfff05 	stb	r2,-4(fp)
   40e40:	0001883a 	nop
   40e44:	d0a00017 	ldw	r2,-32768(gp)
   40e48:	10800204 	addi	r2,r2,8
   40e4c:	10800017 	ldw	r2,0(r2)
   40e50:	1080100c 	andi	r2,r2,64
   40e54:	103ffb26 	beq	r2,zero,40e44 <_gp+0xfffefe8c>
   40e58:	d0a00017 	ldw	r2,-32768(gp)
   40e5c:	10800104 	addi	r2,r2,4
   40e60:	e0ffff07 	ldb	r3,-4(fp)
   40e64:	10c00015 	stw	r3,0(r2)
   40e68:	e0bfff07 	ldb	r2,-4(fp)
   40e6c:	01000134 	movhi	r4,4
   40e70:	211cb904 	addi	r4,r4,29412
   40e74:	100b883a 	mov	r5,r2
   40e78:	0044a800 	call	44a80 <alt_printf>
   40e7c:	e037883a 	mov	sp,fp
   40e80:	dfc00117 	ldw	ra,4(sp)
   40e84:	df000017 	ldw	fp,0(sp)
   40e88:	dec00204 	addi	sp,sp,8
   40e8c:	f800283a 	ret

00040e90 <putstr_uart0>:
   40e90:	defffc04 	addi	sp,sp,-16
   40e94:	dfc00315 	stw	ra,12(sp)
   40e98:	df000215 	stw	fp,8(sp)
   40e9c:	df000204 	addi	fp,sp,8
   40ea0:	e13fff15 	stw	r4,-4(fp)
   40ea4:	01000134 	movhi	r4,4
   40ea8:	211cba04 	addi	r4,r4,29416
   40eac:	e17fff17 	ldw	r5,-4(fp)
   40eb0:	0044a800 	call	44a80 <alt_printf>
   40eb4:	e0bfff17 	ldw	r2,-4(fp)
   40eb8:	e0bffe15 	stw	r2,-8(fp)
   40ebc:	00001106 	br	40f04 <putstr_uart0+0x74>
   40ec0:	0001883a 	nop
   40ec4:	d0a00017 	ldw	r2,-32768(gp)
   40ec8:	10800204 	addi	r2,r2,8
   40ecc:	10800017 	ldw	r2,0(r2)
   40ed0:	1080100c 	andi	r2,r2,64
   40ed4:	103ffb26 	beq	r2,zero,40ec4 <_gp+0xfffeff0c>
   40ed8:	d0a00017 	ldw	r2,-32768(gp)
   40edc:	10800104 	addi	r2,r2,4
   40ee0:	e0fffe17 	ldw	r3,-8(fp)
   40ee4:	18c00003 	ldbu	r3,0(r3)
   40ee8:	18c03fcc 	andi	r3,r3,255
   40eec:	18c0201c 	xori	r3,r3,128
   40ef0:	18ffe004 	addi	r3,r3,-128
   40ef4:	10c00015 	stw	r3,0(r2)
   40ef8:	e0bffe17 	ldw	r2,-8(fp)
   40efc:	10800044 	addi	r2,r2,1
   40f00:	e0bffe15 	stw	r2,-8(fp)
   40f04:	e0bffe17 	ldw	r2,-8(fp)
   40f08:	10800003 	ldbu	r2,0(r2)
   40f0c:	10803fcc 	andi	r2,r2,255
   40f10:	1080201c 	xori	r2,r2,128
   40f14:	10bfe004 	addi	r2,r2,-128
   40f18:	103fe91e 	bne	r2,zero,40ec0 <_gp+0xfffeff08>
   40f1c:	e037883a 	mov	sp,fp
   40f20:	dfc00117 	ldw	ra,4(sp)
   40f24:	df000017 	ldw	fp,0(sp)
   40f28:	dec00204 	addi	sp,sp,8
   40f2c:	f800283a 	ret

00040f30 <error_check>:
   40f30:	defffc04 	addi	sp,sp,-16
   40f34:	dfc00315 	stw	ra,12(sp)
   40f38:	df000215 	stw	fp,8(sp)
   40f3c:	df000204 	addi	fp,sp,8
   40f40:	00800174 	movhi	r2,5
   40f44:	10a40304 	addi	r2,r2,-28660
   40f48:	10800003 	ldbu	r2,0(r2)
   40f4c:	10803fcc 	andi	r2,r2,255
   40f50:	1080201c 	xori	r2,r2,128
   40f54:	10bfe004 	addi	r2,r2,-128
   40f58:	10002526 	beq	r2,zero,40ff0 <error_check+0xc0>
   40f5c:	00800174 	movhi	r2,5
   40f60:	10a40304 	addi	r2,r2,-28660
   40f64:	10000005 	stb	zero,0(r2)
   40f68:	01000174 	movhi	r4,5
   40f6c:	21261904 	addi	r4,r4,-26524
   40f70:	000b883a 	mov	r5,zero
   40f74:	01800c84 	movi	r6,50
   40f78:	004235c0 	call	4235c <memset>
   40f7c:	e03ffe15 	stw	zero,-8(fp)
   40f80:	00404380 	call	40438 <GetUart1>
   40f84:	e0bfff05 	stb	r2,-4(fp)
   40f88:	e0ffff03 	ldbu	r3,-4(fp)
   40f8c:	01000174 	movhi	r4,5
   40f90:	21261904 	addi	r4,r4,-26524
   40f94:	e0bffe17 	ldw	r2,-8(fp)
   40f98:	2085883a 	add	r2,r4,r2
   40f9c:	10c00005 	stb	r3,0(r2)
   40fa0:	e0bffe17 	ldw	r2,-8(fp)
   40fa4:	10800044 	addi	r2,r2,1
   40fa8:	e0bffe15 	stw	r2,-8(fp)
   40fac:	e0bffe17 	ldw	r2,-8(fp)
   40fb0:	10800c88 	cmpgei	r2,r2,50
   40fb4:	1000031e 	bne	r2,zero,40fc4 <error_check+0x94>
   40fb8:	e0bfff03 	ldbu	r2,-4(fp)
   40fbc:	10800298 	cmpnei	r2,r2,10
   40fc0:	103fef1e 	bne	r2,zero,40f80 <_gp+0xfffeffc8>
   40fc4:	d1200104 	addi	r4,gp,-32764
   40fc8:	01400174 	movhi	r5,5
   40fcc:	29661904 	addi	r5,r5,-26524
   40fd0:	01800144 	movi	r6,5
   40fd4:	00425e40 	call	425e4 <strncmp>
   40fd8:	1000051e 	bne	r2,zero,40ff0 <error_check+0xc0>
   40fdc:	01000134 	movhi	r4,4
   40fe0:	211cbb04 	addi	r4,r4,29420
   40fe4:	0044a800 	call	44a80 <alt_printf>
   40fe8:	00800044 	movi	r2,1
   40fec:	00000106 	br	40ff4 <error_check+0xc4>
   40ff0:	0005883a 	mov	r2,zero
   40ff4:	e037883a 	mov	sp,fp
   40ff8:	dfc00117 	ldw	ra,4(sp)
   40ffc:	df000017 	ldw	fp,0(sp)
   41000:	dec00204 	addi	sp,sp,8
   41004:	f800283a 	ret

00041008 <main>:
   41008:	defffd04 	addi	sp,sp,-12
   4100c:	dfc00215 	stw	ra,8(sp)
   41010:	df000115 	stw	fp,4(sp)
   41014:	df000104 	addi	fp,sp,4
   41018:	0040dcc0 	call	40dcc <InitUart>
   4101c:	00000106 	br	41024 <main+0x1c>
   41020:	0001883a 	nop
   41024:	00403d80 	call	403d8 <EmptyUart1>
   41028:	10803fcc 	andi	r2,r2,255
   4102c:	103ffc1e 	bne	r2,zero,41020 <_gp+0xffff0068>
   41030:	00404380 	call	40438 <GetUart1>
   41034:	e0bfff05 	stb	r2,-4(fp)
   41038:	e0bfff07 	ldb	r2,-4(fp)
   4103c:	10c01b60 	cmpeqi	r3,r2,109
   41040:	18000e1e 	bne	r3,zero,4107c <main+0x74>
   41044:	10c01b88 	cmpgei	r3,r2,110
   41048:	1800031e 	bne	r3,zero,41058 <main+0x50>
   4104c:	108018e0 	cmpeqi	r2,r2,99
   41050:	1000181e 	bne	r2,zero,410b4 <main+0xac>
   41054:	00001606 	br	410b0 <main+0xa8>
   41058:	10c01ca0 	cmpeqi	r3,r2,114
   4105c:	1800041e 	bne	r3,zero,41070 <main+0x68>
   41060:	10801d20 	cmpeqi	r2,r2,116
   41064:	10001226 	beq	r2,zero,410b0 <main+0xa8>
   41068:	00410bc0 	call	410bc <start_test>
   4106c:	00001206 	br	410b8 <main+0xb0>
   41070:	01001844 	movi	r4,97
   41074:	00404940 	call	40494 <PutUart1>
   41078:	00000f06 	br	410b8 <main+0xb0>
   4107c:	01001844 	movi	r4,97
   41080:	00404940 	call	40494 <PutUart1>
   41084:	00413ac0 	call	413ac <dump_memory>
   41088:	10803fcc 	andi	r2,r2,255
   4108c:	1080201c 	xori	r2,r2,128
   41090:	10bfe004 	addi	r2,r2,-128
   41094:	10000326 	beq	r2,zero,410a4 <main+0x9c>
   41098:	01001cc4 	movi	r4,115
   4109c:	00404940 	call	40494 <PutUart1>
   410a0:	00000506 	br	410b8 <main+0xb0>
   410a4:	01001984 	movi	r4,102
   410a8:	00404940 	call	40494 <PutUart1>
   410ac:	00000206 	br	410b8 <main+0xb0>
   410b0:	00000106 	br	410b8 <main+0xb0>
   410b4:	0001883a 	nop
   410b8:	003fd906 	br	41020 <_gp+0xffff0068>

000410bc <start_test>:
   410bc:	defff704 	addi	sp,sp,-36
   410c0:	dfc00815 	stw	ra,32(sp)
   410c4:	df000715 	stw	fp,28(sp)
   410c8:	df000704 	addi	fp,sp,28
   410cc:	e03ff915 	stw	zero,-28(fp)
   410d0:	008000c4 	movi	r2,3
   410d4:	e0bffa15 	stw	r2,-24(fp)
   410d8:	00800c84 	movi	r2,50
   410dc:	e0bffb15 	stw	r2,-20(fp)
   410e0:	00802984 	movi	r2,166
   410e4:	e0bffc15 	stw	r2,-16(fp)
   410e8:	00802984 	movi	r2,166
   410ec:	e0bffd15 	stw	r2,-12(fp)
   410f0:	00802984 	movi	r2,166
   410f4:	e0bffe15 	stw	r2,-8(fp)
   410f8:	00802984 	movi	r2,166
   410fc:	e0bfff15 	stw	r2,-4(fp)
   41100:	01000134 	movhi	r4,4
   41104:	211cbd04 	addi	r4,r4,29428
   41108:	0044a800 	call	44a80 <alt_printf>
   4110c:	01000134 	movhi	r4,4
   41110:	211cc904 	addi	r4,r4,29476
   41114:	01400074 	movhi	r5,1
   41118:	29404004 	addi	r5,r5,256
   4111c:	000d883a 	mov	r6,zero
   41120:	0044a800 	call	44a80 <alt_printf>
   41124:	0007883a 	mov	r3,zero
   41128:	00800074 	movhi	r2,1
   4112c:	10804004 	addi	r2,r2,256
   41130:	10c00035 	stwio	r3,0(r2)
   41134:	00800074 	movhi	r2,1
   41138:	10804004 	addi	r2,r2,256
   4113c:	10800037 	ldwio	r2,0(r2)
   41140:	e0bffa15 	stw	r2,-24(fp)
   41144:	e0bffa17 	ldw	r2,-24(fp)
   41148:	10008c1e 	bne	r2,zero,4137c <start_test+0x2c0>
   4114c:	00800074 	movhi	r2,1
   41150:	10804104 	addi	r2,r2,260
   41154:	10800037 	ldwio	r2,0(r2)
   41158:	01000134 	movhi	r4,4
   4115c:	211cd204 	addi	r4,r4,29512
   41160:	100b883a 	mov	r5,r2
   41164:	0044a800 	call	44a80 <alt_printf>
   41168:	0007883a 	mov	r3,zero
   4116c:	00800074 	movhi	r2,1
   41170:	10804204 	addi	r2,r2,264
   41174:	10c00035 	stwio	r3,0(r2)
   41178:	00800074 	movhi	r2,1
   4117c:	10804204 	addi	r2,r2,264
   41180:	10800037 	ldwio	r2,0(r2)
   41184:	e0bffa15 	stw	r2,-24(fp)
   41188:	e0bffa17 	ldw	r2,-24(fp)
   4118c:	10007b1e 	bne	r2,zero,4137c <start_test+0x2c0>
   41190:	00c40004 	movi	r3,4096
   41194:	00800074 	movhi	r2,1
   41198:	10804304 	addi	r2,r2,268
   4119c:	10c00035 	stwio	r3,0(r2)
   411a0:	00800074 	movhi	r2,1
   411a4:	10804304 	addi	r2,r2,268
   411a8:	10800037 	ldwio	r2,0(r2)
   411ac:	e0bffa15 	stw	r2,-24(fp)
   411b0:	e0bffa17 	ldw	r2,-24(fp)
   411b4:	10840018 	cmpnei	r2,r2,4096
   411b8:	1000701e 	bne	r2,zero,4137c <start_test+0x2c0>
   411bc:	00800074 	movhi	r2,1
   411c0:	10804504 	addi	r2,r2,276
   411c4:	e0fffb17 	ldw	r3,-20(fp)
   411c8:	10c00035 	stwio	r3,0(r2)
   411cc:	00800074 	movhi	r2,1
   411d0:	10804504 	addi	r2,r2,276
   411d4:	10800037 	ldwio	r2,0(r2)
   411d8:	e0bffa15 	stw	r2,-24(fp)
   411dc:	e0fffa17 	ldw	r3,-24(fp)
   411e0:	e0bffb17 	ldw	r2,-20(fp)
   411e4:	1880651e 	bne	r3,r2,4137c <start_test+0x2c0>
   411e8:	00c000c4 	movi	r3,3
   411ec:	00800074 	movhi	r2,1
   411f0:	10804404 	addi	r2,r2,272
   411f4:	10c00035 	stwio	r3,0(r2)
   411f8:	00800074 	movhi	r2,1
   411fc:	10804404 	addi	r2,r2,272
   41200:	10800037 	ldwio	r2,0(r2)
   41204:	e0bffa15 	stw	r2,-24(fp)
   41208:	e0bffa17 	ldw	r2,-24(fp)
   4120c:	108000d8 	cmpnei	r2,r2,3
   41210:	10005a1e 	bne	r2,zero,4137c <start_test+0x2c0>
   41214:	00800074 	movhi	r2,1
   41218:	10804604 	addi	r2,r2,280
   4121c:	e0fffc17 	ldw	r3,-16(fp)
   41220:	10c00035 	stwio	r3,0(r2)
   41224:	00800074 	movhi	r2,1
   41228:	10804604 	addi	r2,r2,280
   4122c:	10800037 	ldwio	r2,0(r2)
   41230:	e0bffa15 	stw	r2,-24(fp)
   41234:	e0fffa17 	ldw	r3,-24(fp)
   41238:	e0bffc17 	ldw	r2,-16(fp)
   4123c:	18804f1e 	bne	r3,r2,4137c <start_test+0x2c0>
   41240:	00800074 	movhi	r2,1
   41244:	10804704 	addi	r2,r2,284
   41248:	e0fffd17 	ldw	r3,-12(fp)
   4124c:	10c00035 	stwio	r3,0(r2)
   41250:	00800074 	movhi	r2,1
   41254:	10804704 	addi	r2,r2,284
   41258:	10800037 	ldwio	r2,0(r2)
   4125c:	e0bffa15 	stw	r2,-24(fp)
   41260:	e0fffa17 	ldw	r3,-24(fp)
   41264:	e0bffd17 	ldw	r2,-12(fp)
   41268:	1880441e 	bne	r3,r2,4137c <start_test+0x2c0>
   4126c:	00800074 	movhi	r2,1
   41270:	10804804 	addi	r2,r2,288
   41274:	e0fffe17 	ldw	r3,-8(fp)
   41278:	10c00035 	stwio	r3,0(r2)
   4127c:	00800074 	movhi	r2,1
   41280:	10804804 	addi	r2,r2,288
   41284:	10800037 	ldwio	r2,0(r2)
   41288:	e0bffa15 	stw	r2,-24(fp)
   4128c:	e0fffa17 	ldw	r3,-24(fp)
   41290:	e0bffe17 	ldw	r2,-8(fp)
   41294:	1880391e 	bne	r3,r2,4137c <start_test+0x2c0>
   41298:	00800074 	movhi	r2,1
   4129c:	10804904 	addi	r2,r2,292
   412a0:	e0ffff17 	ldw	r3,-4(fp)
   412a4:	10c00035 	stwio	r3,0(r2)
   412a8:	00800074 	movhi	r2,1
   412ac:	10804904 	addi	r2,r2,292
   412b0:	10800037 	ldwio	r2,0(r2)
   412b4:	e0bffa15 	stw	r2,-24(fp)
   412b8:	e0fffa17 	ldw	r3,-24(fp)
   412bc:	e0bfff17 	ldw	r2,-4(fp)
   412c0:	18802e1e 	bne	r3,r2,4137c <start_test+0x2c0>
   412c4:	00c00344 	movi	r3,13
   412c8:	00800074 	movhi	r2,1
   412cc:	10804004 	addi	r2,r2,256
   412d0:	10c00035 	stwio	r3,0(r2)
   412d4:	00800074 	movhi	r2,1
   412d8:	10804004 	addi	r2,r2,256
   412dc:	10800037 	ldwio	r2,0(r2)
   412e0:	e0bffa15 	stw	r2,-24(fp)
   412e4:	e0bffa17 	ldw	r2,-24(fp)
   412e8:	10800358 	cmpnei	r2,r2,13
   412ec:	1000231e 	bne	r2,zero,4137c <start_test+0x2c0>
   412f0:	00800074 	movhi	r2,1
   412f4:	10804104 	addi	r2,r2,260
   412f8:	10800037 	ldwio	r2,0(r2)
   412fc:	01000134 	movhi	r4,4
   41300:	211cd204 	addi	r4,r4,29512
   41304:	100b883a 	mov	r5,r2
   41308:	0044a800 	call	44a80 <alt_printf>
   4130c:	00800074 	movhi	r2,1
   41310:	10804004 	addi	r2,r2,256
   41314:	10800037 	ldwio	r2,0(r2)
   41318:	01000134 	movhi	r4,4
   4131c:	211cd604 	addi	r4,r4,29528
   41320:	100b883a 	mov	r5,r2
   41324:	0044a800 	call	44a80 <alt_printf>
   41328:	0109c404 	movi	r4,10000
   4132c:	0044f600 	call	44f60 <usleep>
   41330:	00800074 	movhi	r2,1
   41334:	10804104 	addi	r2,r2,260
   41338:	10800037 	ldwio	r2,0(r2)
   4133c:	01000134 	movhi	r4,4
   41340:	211cd904 	addi	r4,r4,29540
   41344:	100b883a 	mov	r5,r2
   41348:	0044a800 	call	44a80 <alt_printf>
   4134c:	0007883a 	mov	r3,zero
   41350:	00800074 	movhi	r2,1
   41354:	10804004 	addi	r2,r2,256
   41358:	10c00035 	stwio	r3,0(r2)
   4135c:	00800074 	movhi	r2,1
   41360:	10804004 	addi	r2,r2,256
   41364:	10800037 	ldwio	r2,0(r2)
   41368:	e0bffa15 	stw	r2,-24(fp)
   4136c:	e0bffa17 	ldw	r2,-24(fp)
   41370:	1000021e 	bne	r2,zero,4137c <start_test+0x2c0>
   41374:	00800044 	movi	r2,1
   41378:	e0bff915 	stw	r2,-28(fp)
   4137c:	e0bff917 	ldw	r2,-28(fp)
   41380:	10000326 	beq	r2,zero,41390 <start_test+0x2d4>
   41384:	01001cc4 	movi	r4,115
   41388:	00404940 	call	40494 <PutUart1>
   4138c:	00000206 	br	41398 <start_test+0x2dc>
   41390:	01001984 	movi	r4,102
   41394:	00404940 	call	40494 <PutUart1>
   41398:	e037883a 	mov	sp,fp
   4139c:	dfc00117 	ldw	ra,4(sp)
   413a0:	df000017 	ldw	fp,0(sp)
   413a4:	dec00204 	addi	sp,sp,8
   413a8:	f800283a 	ret

000413ac <dump_memory>:
   413ac:	defff804 	addi	sp,sp,-32
   413b0:	dfc00715 	stw	ra,28(sp)
   413b4:	df000615 	stw	fp,24(sp)
   413b8:	df000604 	addi	fp,sp,24
   413bc:	e03ffb15 	stw	zero,-20(fp)
   413c0:	e03ffc15 	stw	zero,-16(fp)
   413c4:	e03ffd15 	stw	zero,-12(fp)
   413c8:	e03ffe15 	stw	zero,-8(fp)
   413cc:	e03fff15 	stw	zero,-4(fp)
   413d0:	e03ffa15 	stw	zero,-24(fp)
   413d4:	00001806 	br	41438 <dump_memory+0x8c>
   413d8:	e0bffb04 	addi	r2,fp,-20
   413dc:	1009883a 	mov	r4,r2
   413e0:	000b883a 	mov	r5,zero
   413e4:	01800504 	movi	r6,20
   413e8:	004235c0 	call	4235c <memset>
   413ec:	e0bffa17 	ldw	r2,-24(fp)
   413f0:	10c00037 	ldwio	r3,0(r2)
   413f4:	e0bffa17 	ldw	r2,-24(fp)
   413f8:	10800104 	addi	r2,r2,4
   413fc:	10800037 	ldwio	r2,0(r2)
   41400:	e13ffb04 	addi	r4,fp,-20
   41404:	01400134 	movhi	r5,4
   41408:	295cdf04 	addi	r5,r5,29564
   4140c:	180d883a 	mov	r6,r3
   41410:	100f883a 	mov	r7,r2
   41414:	0040d780 	call	40d78 <raw_sprintf>
   41418:	e0bffb04 	addi	r2,fp,-20
   4141c:	1009883a 	mov	r4,r2
   41420:	0040e900 	call	40e90 <putstr_uart0>
   41424:	010cb204 	movi	r4,13000
   41428:	0044f600 	call	44f60 <usleep>
   4142c:	e0bffa17 	ldw	r2,-24(fp)
   41430:	10800204 	addi	r2,r2,8
   41434:	e0bffa15 	stw	r2,-24(fp)
   41438:	e0bffa17 	ldw	r2,-24(fp)
   4143c:	10840010 	cmplti	r2,r2,4096
   41440:	103fe51e 	bne	r2,zero,413d8 <_gp+0xffff0420>
   41444:	00800044 	movi	r2,1
   41448:	e037883a 	mov	sp,fp
   4144c:	dfc00117 	ldw	ra,4(sp)
   41450:	df000017 	ldw	fp,0(sp)
   41454:	dec00204 	addi	sp,sp,8
   41458:	f800283a 	ret

0004145c <__divsf3>:
   4145c:	defff504 	addi	sp,sp,-44
   41460:	d9000915 	stw	r4,36(sp)
   41464:	d9400815 	stw	r5,32(sp)
   41468:	d9000904 	addi	r4,sp,36
   4146c:	d9400404 	addi	r5,sp,16
   41470:	dfc00a15 	stw	ra,40(sp)
   41474:	0041ee40 	call	41ee4 <__unpack_f>
   41478:	d9000804 	addi	r4,sp,32
   4147c:	d80b883a 	mov	r5,sp
   41480:	0041ee40 	call	41ee4 <__unpack_f>
   41484:	d8c00417 	ldw	r3,16(sp)
   41488:	00800044 	movi	r2,1
   4148c:	10c00536 	bltu	r2,r3,414a4 <__divsf3+0x48>
   41490:	d9000404 	addi	r4,sp,16
   41494:	0041db80 	call	41db8 <__pack_f>
   41498:	dfc00a17 	ldw	ra,40(sp)
   4149c:	dec00b04 	addi	sp,sp,44
   414a0:	f800283a 	ret
   414a4:	d9000017 	ldw	r4,0(sp)
   414a8:	11000536 	bltu	r2,r4,414c0 <__divsf3+0x64>
   414ac:	d809883a 	mov	r4,sp
   414b0:	0041db80 	call	41db8 <__pack_f>
   414b4:	dfc00a17 	ldw	ra,40(sp)
   414b8:	dec00b04 	addi	sp,sp,44
   414bc:	f800283a 	ret
   414c0:	d9800517 	ldw	r6,20(sp)
   414c4:	d9400117 	ldw	r5,4(sp)
   414c8:	00800104 	movi	r2,4
   414cc:	314af03a 	xor	r5,r6,r5
   414d0:	d9400515 	stw	r5,20(sp)
   414d4:	18800226 	beq	r3,r2,414e0 <__divsf3+0x84>
   414d8:	01400084 	movi	r5,2
   414dc:	1940041e 	bne	r3,r5,414f0 <__divsf3+0x94>
   414e0:	193feb1e 	bne	r3,r4,41490 <_gp+0xffff04d8>
   414e4:	01000134 	movhi	r4,4
   414e8:	211ce104 	addi	r4,r4,29572
   414ec:	003fe906 	br	41494 <_gp+0xffff04dc>
   414f0:	20802226 	beq	r4,r2,4157c <__divsf3+0x120>
   414f4:	21402526 	beq	r4,r5,4158c <__divsf3+0x130>
   414f8:	d9000617 	ldw	r4,24(sp)
   414fc:	d8c00217 	ldw	r3,8(sp)
   41500:	d8800717 	ldw	r2,28(sp)
   41504:	d9400317 	ldw	r5,12(sp)
   41508:	20c7c83a 	sub	r3,r4,r3
   4150c:	d8c00615 	stw	r3,24(sp)
   41510:	1140032e 	bgeu	r2,r5,41520 <__divsf3+0xc4>
   41514:	18ffffc4 	addi	r3,r3,-1
   41518:	1085883a 	add	r2,r2,r2
   4151c:	d8c00615 	stw	r3,24(sp)
   41520:	00c007c4 	movi	r3,31
   41524:	01100034 	movhi	r4,16384
   41528:	000d883a 	mov	r6,zero
   4152c:	18ffffc4 	addi	r3,r3,-1
   41530:	11400236 	bltu	r2,r5,4153c <__divsf3+0xe0>
   41534:	310cb03a 	or	r6,r6,r4
   41538:	1145c83a 	sub	r2,r2,r5
   4153c:	2008d07a 	srli	r4,r4,1
   41540:	1085883a 	add	r2,r2,r2
   41544:	183ff91e 	bne	r3,zero,4152c <_gp+0xffff0574>
   41548:	31001fcc 	andi	r4,r6,127
   4154c:	00c01004 	movi	r3,64
   41550:	20c00226 	beq	r4,r3,4155c <__divsf3+0x100>
   41554:	d9800715 	stw	r6,28(sp)
   41558:	003fcd06 	br	41490 <_gp+0xffff04d8>
   4155c:	30c0200c 	andi	r3,r6,128
   41560:	183ffc1e 	bne	r3,zero,41554 <_gp+0xffff059c>
   41564:	103ffb26 	beq	r2,zero,41554 <_gp+0xffff059c>
   41568:	31801004 	addi	r6,r6,64
   4156c:	00bfe004 	movi	r2,-128
   41570:	308c703a 	and	r6,r6,r2
   41574:	d9800715 	stw	r6,28(sp)
   41578:	003fc506 	br	41490 <_gp+0xffff04d8>
   4157c:	d8000715 	stw	zero,28(sp)
   41580:	d8000615 	stw	zero,24(sp)
   41584:	d9000404 	addi	r4,sp,16
   41588:	003fc206 	br	41494 <_gp+0xffff04dc>
   4158c:	d8800415 	stw	r2,16(sp)
   41590:	d9000404 	addi	r4,sp,16
   41594:	003fbf06 	br	41494 <_gp+0xffff04dc>

00041598 <__extendsfdf2>:
   41598:	defff904 	addi	sp,sp,-28
   4159c:	d9000515 	stw	r4,20(sp)
   415a0:	d9400104 	addi	r5,sp,4
   415a4:	d9000504 	addi	r4,sp,20
   415a8:	dfc00615 	stw	ra,24(sp)
   415ac:	0041ee40 	call	41ee4 <__unpack_f>
   415b0:	d9c00417 	ldw	r7,16(sp)
   415b4:	d9000117 	ldw	r4,4(sp)
   415b8:	d9400217 	ldw	r5,8(sp)
   415bc:	3804d0ba 	srli	r2,r7,2
   415c0:	d9800317 	ldw	r6,12(sp)
   415c4:	380e97ba 	slli	r7,r7,30
   415c8:	d8800015 	stw	r2,0(sp)
   415cc:	0041b7c0 	call	41b7c <__make_dp>
   415d0:	dfc00617 	ldw	ra,24(sp)
   415d4:	dec00704 	addi	sp,sp,28
   415d8:	f800283a 	ret

000415dc <__floatunsisf>:
   415dc:	defffa04 	addi	sp,sp,-24
   415e0:	dc000415 	stw	r16,16(sp)
   415e4:	dfc00515 	stw	ra,20(sp)
   415e8:	d8000115 	stw	zero,4(sp)
   415ec:	2021883a 	mov	r16,r4
   415f0:	20001326 	beq	r4,zero,41640 <__floatunsisf+0x64>
   415f4:	008000c4 	movi	r2,3
   415f8:	d8800015 	stw	r2,0(sp)
   415fc:	00800784 	movi	r2,30
   41600:	d8800215 	stw	r2,8(sp)
   41604:	0041d0c0 	call	41d0c <__clzsi2>
   41608:	10ffffc4 	addi	r3,r2,-1
   4160c:	18001416 	blt	r3,zero,41660 <__floatunsisf+0x84>
   41610:	18002526 	beq	r3,zero,416a8 <__floatunsisf+0xcc>
   41614:	80e0983a 	sll	r16,r16,r3
   41618:	00c007c4 	movi	r3,31
   4161c:	1885c83a 	sub	r2,r3,r2
   41620:	dc000315 	stw	r16,12(sp)
   41624:	d8800215 	stw	r2,8(sp)
   41628:	d809883a 	mov	r4,sp
   4162c:	0041db80 	call	41db8 <__pack_f>
   41630:	dfc00517 	ldw	ra,20(sp)
   41634:	dc000417 	ldw	r16,16(sp)
   41638:	dec00604 	addi	sp,sp,24
   4163c:	f800283a 	ret
   41640:	00800084 	movi	r2,2
   41644:	d809883a 	mov	r4,sp
   41648:	d8800015 	stw	r2,0(sp)
   4164c:	0041db80 	call	41db8 <__pack_f>
   41650:	dfc00517 	ldw	ra,20(sp)
   41654:	dc000417 	ldw	r16,16(sp)
   41658:	dec00604 	addi	sp,sp,24
   4165c:	f800283a 	ret
   41660:	00c7c83a 	sub	r3,zero,r3
   41664:	01000044 	movi	r4,1
   41668:	20c8983a 	sll	r4,r4,r3
   4166c:	80c6d83a 	srl	r3,r16,r3
   41670:	213fffc4 	addi	r4,r4,-1
   41674:	2420703a 	and	r16,r4,r16
   41678:	8020c03a 	cmpne	r16,r16,zero
   4167c:	010007c4 	movi	r4,31
   41680:	80c6b03a 	or	r3,r16,r3
   41684:	2085c83a 	sub	r2,r4,r2
   41688:	d809883a 	mov	r4,sp
   4168c:	d8c00315 	stw	r3,12(sp)
   41690:	d8800215 	stw	r2,8(sp)
   41694:	0041db80 	call	41db8 <__pack_f>
   41698:	dfc00517 	ldw	ra,20(sp)
   4169c:	dc000417 	ldw	r16,16(sp)
   416a0:	dec00604 	addi	sp,sp,24
   416a4:	f800283a 	ret
   416a8:	dc000315 	stw	r16,12(sp)
   416ac:	003fde06 	br	41628 <_gp+0xffff0670>

000416b0 <_fpadd_parts>:
   416b0:	2005883a 	mov	r2,r4
   416b4:	21000017 	ldw	r4,0(r4)
   416b8:	01c00044 	movi	r7,1
   416bc:	3900622e 	bgeu	r7,r4,41848 <_fpadd_parts+0x198>
   416c0:	28c00017 	ldw	r3,0(r5)
   416c4:	38c05f2e 	bgeu	r7,r3,41844 <_fpadd_parts+0x194>
   416c8:	01c00104 	movi	r7,4
   416cc:	21c0c626 	beq	r4,r7,419e8 <_fpadd_parts+0x338>
   416d0:	19c05c26 	beq	r3,r7,41844 <_fpadd_parts+0x194>
   416d4:	01c00084 	movi	r7,2
   416d8:	19c06b26 	beq	r3,r7,41888 <_fpadd_parts+0x1d8>
   416dc:	21c05926 	beq	r4,r7,41844 <_fpadd_parts+0x194>
   416e0:	11c00217 	ldw	r7,8(r2)
   416e4:	2ac00217 	ldw	r11,8(r5)
   416e8:	13000317 	ldw	r12,12(r2)
   416ec:	13400417 	ldw	r13,16(r2)
   416f0:	3ac9c83a 	sub	r4,r7,r11
   416f4:	2a000317 	ldw	r8,12(r5)
   416f8:	2a400417 	ldw	r9,16(r5)
   416fc:	2015883a 	mov	r10,r4
   41700:	20007516 	blt	r4,zero,418d8 <_fpadd_parts+0x228>
   41704:	00c00fc4 	movi	r3,63
   41708:	1a805016 	blt	r3,r10,4184c <_fpadd_parts+0x19c>
   4170c:	0100870e 	bge	zero,r4,4192c <_fpadd_parts+0x27c>
   41710:	50fff804 	addi	r3,r10,-32
   41714:	18009916 	blt	r3,zero,4197c <_fpadd_parts+0x2cc>
   41718:	48d6d83a 	srl	r11,r9,r3
   4171c:	001d883a 	mov	r14,zero
   41720:	18009e16 	blt	r3,zero,4199c <_fpadd_parts+0x2ec>
   41724:	01000044 	movi	r4,1
   41728:	20c6983a 	sll	r3,r4,r3
   4172c:	0015883a 	mov	r10,zero
   41730:	513fffc4 	addi	r4,r10,-1
   41734:	2295403a 	cmpgeu	r10,r4,r10
   41738:	1a87c83a 	sub	r3,r3,r10
   4173c:	1a52703a 	and	r9,r3,r9
   41740:	2210703a 	and	r8,r4,r8
   41744:	4250b03a 	or	r8,r8,r9
   41748:	4010c03a 	cmpne	r8,r8,zero
   4174c:	42d0b03a 	or	r8,r8,r11
   41750:	7013883a 	mov	r9,r14
   41754:	11000117 	ldw	r4,4(r2)
   41758:	28800117 	ldw	r2,4(r5)
   4175c:	20804126 	beq	r4,r2,41864 <_fpadd_parts+0x1b4>
   41760:	20006326 	beq	r4,zero,418f0 <_fpadd_parts+0x240>
   41764:	4305c83a 	sub	r2,r8,r12
   41768:	4091803a 	cmpltu	r8,r8,r2
   4176c:	4b47c83a 	sub	r3,r9,r13
   41770:	1a07c83a 	sub	r3,r3,r8
   41774:	18006316 	blt	r3,zero,41904 <_fpadd_parts+0x254>
   41778:	30000115 	stw	zero,4(r6)
   4177c:	31c00215 	stw	r7,8(r6)
   41780:	30800315 	stw	r2,12(r6)
   41784:	30c00415 	stw	r3,16(r6)
   41788:	11ffffc4 	addi	r7,r2,-1
   4178c:	388b403a 	cmpgeu	r5,r7,r2
   41790:	194bc83a 	sub	r5,r3,r5
   41794:	01040034 	movhi	r4,4096
   41798:	213fffc4 	addi	r4,r4,-1
   4179c:	21401736 	bltu	r4,r5,417fc <_fpadd_parts+0x14c>
   417a0:	29008226 	beq	r5,r4,419ac <_fpadd_parts+0x2fc>
   417a4:	31400217 	ldw	r5,8(r6)
   417a8:	02840034 	movhi	r10,4096
   417ac:	52bfffc4 	addi	r10,r10,-1
   417b0:	033fff84 	movi	r12,-2
   417b4:	297fffc4 	addi	r5,r5,-1
   417b8:	00000106 	br	417c0 <_fpadd_parts+0x110>
   417bc:	3a804a26 	beq	r7,r10,418e8 <_fpadd_parts+0x238>
   417c0:	1089883a 	add	r4,r2,r2
   417c4:	2091803a 	cmpltu	r8,r4,r2
   417c8:	18c7883a 	add	r3,r3,r3
   417cc:	227fffc4 	addi	r9,r4,-1
   417d0:	40d1883a 	add	r8,r8,r3
   417d4:	490f403a 	cmpgeu	r7,r9,r4
   417d8:	41cfc83a 	sub	r7,r8,r7
   417dc:	2817883a 	mov	r11,r5
   417e0:	2005883a 	mov	r2,r4
   417e4:	4007883a 	mov	r3,r8
   417e8:	297fffc4 	addi	r5,r5,-1
   417ec:	51fff32e 	bgeu	r10,r7,417bc <_gp+0xffff0804>
   417f0:	31000315 	stw	r4,12(r6)
   417f4:	32000415 	stw	r8,16(r6)
   417f8:	32c00215 	stw	r11,8(r6)
   417fc:	010000c4 	movi	r4,3
   41800:	31000015 	stw	r4,0(r6)
   41804:	01080034 	movhi	r4,8192
   41808:	213fffc4 	addi	r4,r4,-1
   4180c:	20c00b2e 	bgeu	r4,r3,4183c <_fpadd_parts+0x18c>
   41810:	180e97fa 	slli	r7,r3,31
   41814:	1008d07a 	srli	r4,r2,1
   41818:	31400217 	ldw	r5,8(r6)
   4181c:	1806d07a 	srli	r3,r3,1
   41820:	1080004c 	andi	r2,r2,1
   41824:	3908b03a 	or	r4,r7,r4
   41828:	1108b03a 	or	r4,r2,r4
   4182c:	29400044 	addi	r5,r5,1
   41830:	31000315 	stw	r4,12(r6)
   41834:	30c00415 	stw	r3,16(r6)
   41838:	31400215 	stw	r5,8(r6)
   4183c:	3005883a 	mov	r2,r6
   41840:	f800283a 	ret
   41844:	2805883a 	mov	r2,r5
   41848:	f800283a 	ret
   4184c:	59c01e0e 	bge	r11,r7,418c8 <_fpadd_parts+0x218>
   41850:	11000117 	ldw	r4,4(r2)
   41854:	28800117 	ldw	r2,4(r5)
   41858:	0011883a 	mov	r8,zero
   4185c:	0013883a 	mov	r9,zero
   41860:	20bfbf1e 	bne	r4,r2,41760 <_gp+0xffff07a8>
   41864:	4305883a 	add	r2,r8,r12
   41868:	1207803a 	cmpltu	r3,r2,r8
   4186c:	4b53883a 	add	r9,r9,r13
   41870:	1a47883a 	add	r3,r3,r9
   41874:	31000115 	stw	r4,4(r6)
   41878:	31c00215 	stw	r7,8(r6)
   4187c:	30800315 	stw	r2,12(r6)
   41880:	30c00415 	stw	r3,16(r6)
   41884:	003fdd06 	br	417fc <_gp+0xffff0844>
   41888:	20ffef1e 	bne	r4,r3,41848 <_gp+0xffff0890>
   4188c:	31000015 	stw	r4,0(r6)
   41890:	10c00117 	ldw	r3,4(r2)
   41894:	30c00115 	stw	r3,4(r6)
   41898:	10c00217 	ldw	r3,8(r2)
   4189c:	11000117 	ldw	r4,4(r2)
   418a0:	29400117 	ldw	r5,4(r5)
   418a4:	30c00215 	stw	r3,8(r6)
   418a8:	10c00317 	ldw	r3,12(r2)
   418ac:	2908703a 	and	r4,r5,r4
   418b0:	30c00315 	stw	r3,12(r6)
   418b4:	10c00417 	ldw	r3,16(r2)
   418b8:	31000115 	stw	r4,4(r6)
   418bc:	3005883a 	mov	r2,r6
   418c0:	30c00415 	stw	r3,16(r6)
   418c4:	f800283a 	ret
   418c8:	580f883a 	mov	r7,r11
   418cc:	0019883a 	mov	r12,zero
   418d0:	001b883a 	mov	r13,zero
   418d4:	003f9f06 	br	41754 <_gp+0xffff079c>
   418d8:	0115c83a 	sub	r10,zero,r4
   418dc:	00c00fc4 	movi	r3,63
   418e0:	1abfda16 	blt	r3,r10,4184c <_gp+0xffff0894>
   418e4:	003f8906 	br	4170c <_gp+0xffff0754>
   418e8:	627fb52e 	bgeu	r12,r9,417c0 <_gp+0xffff0808>
   418ec:	003fc006 	br	417f0 <_gp+0xffff0838>
   418f0:	6205c83a 	sub	r2,r12,r8
   418f4:	6099803a 	cmpltu	r12,r12,r2
   418f8:	6a47c83a 	sub	r3,r13,r9
   418fc:	1b07c83a 	sub	r3,r3,r12
   41900:	183f9d0e 	bge	r3,zero,41778 <_gp+0xffff07c0>
   41904:	0085c83a 	sub	r2,zero,r2
   41908:	1008c03a 	cmpne	r4,r2,zero
   4190c:	00c7c83a 	sub	r3,zero,r3
   41910:	1907c83a 	sub	r3,r3,r4
   41914:	01000044 	movi	r4,1
   41918:	31000115 	stw	r4,4(r6)
   4191c:	31c00215 	stw	r7,8(r6)
   41920:	30800315 	stw	r2,12(r6)
   41924:	30c00415 	stw	r3,16(r6)
   41928:	003f9706 	br	41788 <_gp+0xffff07d0>
   4192c:	203f8926 	beq	r4,zero,41754 <_gp+0xffff079c>
   41930:	50fff804 	addi	r3,r10,-32
   41934:	3a8f883a 	add	r7,r7,r10
   41938:	18002316 	blt	r3,zero,419c8 <_fpadd_parts+0x318>
   4193c:	68d6d83a 	srl	r11,r13,r3
   41940:	001d883a 	mov	r14,zero
   41944:	18001c16 	blt	r3,zero,419b8 <_fpadd_parts+0x308>
   41948:	01000044 	movi	r4,1
   4194c:	20c6983a 	sll	r3,r4,r3
   41950:	0015883a 	mov	r10,zero
   41954:	513fffc4 	addi	r4,r10,-1
   41958:	2295403a 	cmpgeu	r10,r4,r10
   4195c:	1a87c83a 	sub	r3,r3,r10
   41960:	1b5a703a 	and	r13,r3,r13
   41964:	2318703a 	and	r12,r4,r12
   41968:	6358b03a 	or	r12,r12,r13
   4196c:	6018c03a 	cmpne	r12,r12,zero
   41970:	62d8b03a 	or	r12,r12,r11
   41974:	701b883a 	mov	r13,r14
   41978:	003f7606 	br	41754 <_gp+0xffff079c>
   4197c:	4808907a 	slli	r4,r9,1
   41980:	02c007c4 	movi	r11,31
   41984:	5a97c83a 	sub	r11,r11,r10
   41988:	22c8983a 	sll	r4,r4,r11
   4198c:	4296d83a 	srl	r11,r8,r10
   41990:	4a9cd83a 	srl	r14,r9,r10
   41994:	22d6b03a 	or	r11,r4,r11
   41998:	003f6106 	br	41720 <_gp+0xffff0768>
   4199c:	00c00044 	movi	r3,1
   419a0:	1a94983a 	sll	r10,r3,r10
   419a4:	0007883a 	mov	r3,zero
   419a8:	003f6106 	br	41730 <_gp+0xffff0778>
   419ac:	013fff84 	movi	r4,-2
   419b0:	21ff7c2e 	bgeu	r4,r7,417a4 <_gp+0xffff07ec>
   419b4:	003f9106 	br	417fc <_gp+0xffff0844>
   419b8:	00c00044 	movi	r3,1
   419bc:	1a94983a 	sll	r10,r3,r10
   419c0:	0007883a 	mov	r3,zero
   419c4:	003fe306 	br	41954 <_gp+0xffff099c>
   419c8:	6816907a 	slli	r11,r13,1
   419cc:	010007c4 	movi	r4,31
   419d0:	2289c83a 	sub	r4,r4,r10
   419d4:	5908983a 	sll	r4,r11,r4
   419d8:	6296d83a 	srl	r11,r12,r10
   419dc:	6a9cd83a 	srl	r14,r13,r10
   419e0:	22d6b03a 	or	r11,r4,r11
   419e4:	003fd706 	br	41944 <_gp+0xffff098c>
   419e8:	193f971e 	bne	r3,r4,41848 <_gp+0xffff0890>
   419ec:	11000117 	ldw	r4,4(r2)
   419f0:	28c00117 	ldw	r3,4(r5)
   419f4:	20ff9426 	beq	r4,r3,41848 <_gp+0xffff0890>
   419f8:	00800134 	movhi	r2,4
   419fc:	109ce504 	addi	r2,r2,29588
   41a00:	f800283a 	ret

00041a04 <__adddf3>:
   41a04:	deffec04 	addi	sp,sp,-80
   41a08:	d9001115 	stw	r4,68(sp)
   41a0c:	d9401215 	stw	r5,72(sp)
   41a10:	d9001104 	addi	r4,sp,68
   41a14:	d9400a04 	addi	r5,sp,40
   41a18:	dfc01315 	stw	ra,76(sp)
   41a1c:	d9c01015 	stw	r7,64(sp)
   41a20:	d9800f15 	stw	r6,60(sp)
   41a24:	00421d00 	call	421d0 <__unpack_d>
   41a28:	d9000f04 	addi	r4,sp,60
   41a2c:	d9400504 	addi	r5,sp,20
   41a30:	00421d00 	call	421d0 <__unpack_d>
   41a34:	d9000a04 	addi	r4,sp,40
   41a38:	d9400504 	addi	r5,sp,20
   41a3c:	d80d883a 	mov	r6,sp
   41a40:	00416b00 	call	416b0 <_fpadd_parts>
   41a44:	1009883a 	mov	r4,r2
   41a48:	0041fac0 	call	41fac <__pack_d>
   41a4c:	dfc01317 	ldw	ra,76(sp)
   41a50:	dec01404 	addi	sp,sp,80
   41a54:	f800283a 	ret

00041a58 <__subdf3>:
   41a58:	deffec04 	addi	sp,sp,-80
   41a5c:	d9001115 	stw	r4,68(sp)
   41a60:	d9401215 	stw	r5,72(sp)
   41a64:	d9001104 	addi	r4,sp,68
   41a68:	d9400a04 	addi	r5,sp,40
   41a6c:	dfc01315 	stw	ra,76(sp)
   41a70:	d9c01015 	stw	r7,64(sp)
   41a74:	d9800f15 	stw	r6,60(sp)
   41a78:	00421d00 	call	421d0 <__unpack_d>
   41a7c:	d9000f04 	addi	r4,sp,60
   41a80:	d9400504 	addi	r5,sp,20
   41a84:	00421d00 	call	421d0 <__unpack_d>
   41a88:	d8800617 	ldw	r2,24(sp)
   41a8c:	d9000a04 	addi	r4,sp,40
   41a90:	d9400504 	addi	r5,sp,20
   41a94:	d80d883a 	mov	r6,sp
   41a98:	1080005c 	xori	r2,r2,1
   41a9c:	d8800615 	stw	r2,24(sp)
   41aa0:	00416b00 	call	416b0 <_fpadd_parts>
   41aa4:	1009883a 	mov	r4,r2
   41aa8:	0041fac0 	call	41fac <__pack_d>
   41aac:	dfc01317 	ldw	ra,76(sp)
   41ab0:	dec01404 	addi	sp,sp,80
   41ab4:	f800283a 	ret

00041ab8 <__fixdfsi>:
   41ab8:	defff804 	addi	sp,sp,-32
   41abc:	d9000515 	stw	r4,20(sp)
   41ac0:	d9400615 	stw	r5,24(sp)
   41ac4:	d9000504 	addi	r4,sp,20
   41ac8:	d80b883a 	mov	r5,sp
   41acc:	dfc00715 	stw	ra,28(sp)
   41ad0:	00421d00 	call	421d0 <__unpack_d>
   41ad4:	d8800017 	ldw	r2,0(sp)
   41ad8:	00c00084 	movi	r3,2
   41adc:	10c01c26 	beq	r2,r3,41b50 <__fixdfsi+0x98>
   41ae0:	00c00044 	movi	r3,1
   41ae4:	18801a2e 	bgeu	r3,r2,41b50 <__fixdfsi+0x98>
   41ae8:	00c00104 	movi	r3,4
   41aec:	10c01126 	beq	r2,r3,41b34 <__fixdfsi+0x7c>
   41af0:	d8800217 	ldw	r2,8(sp)
   41af4:	10001616 	blt	r2,zero,41b50 <__fixdfsi+0x98>
   41af8:	00c00784 	movi	r3,30
   41afc:	18800d16 	blt	r3,r2,41b34 <__fixdfsi+0x7c>
   41b00:	00c00f04 	movi	r3,60
   41b04:	1885c83a 	sub	r2,r3,r2
   41b08:	10fff804 	addi	r3,r2,-32
   41b0c:	d9400317 	ldw	r5,12(sp)
   41b10:	d9000417 	ldw	r4,16(sp)
   41b14:	18001216 	blt	r3,zero,41b60 <__fixdfsi+0xa8>
   41b18:	20c4d83a 	srl	r2,r4,r3
   41b1c:	d8c00117 	ldw	r3,4(sp)
   41b20:	18000826 	beq	r3,zero,41b44 <__fixdfsi+0x8c>
   41b24:	0085c83a 	sub	r2,zero,r2
   41b28:	dfc00717 	ldw	ra,28(sp)
   41b2c:	dec00804 	addi	sp,sp,32
   41b30:	f800283a 	ret
   41b34:	d8800117 	ldw	r2,4(sp)
   41b38:	00e00034 	movhi	r3,32768
   41b3c:	1005003a 	cmpeq	r2,r2,zero
   41b40:	1885c83a 	sub	r2,r3,r2
   41b44:	dfc00717 	ldw	ra,28(sp)
   41b48:	dec00804 	addi	sp,sp,32
   41b4c:	f800283a 	ret
   41b50:	0005883a 	mov	r2,zero
   41b54:	dfc00717 	ldw	ra,28(sp)
   41b58:	dec00804 	addi	sp,sp,32
   41b5c:	f800283a 	ret
   41b60:	2008907a 	slli	r4,r4,1
   41b64:	018007c4 	movi	r6,31
   41b68:	308dc83a 	sub	r6,r6,r2
   41b6c:	2188983a 	sll	r4,r4,r6
   41b70:	2884d83a 	srl	r2,r5,r2
   41b74:	2084b03a 	or	r2,r4,r2
   41b78:	003fe806 	br	41b1c <_gp+0xffff0b64>

00041b7c <__make_dp>:
   41b7c:	defff904 	addi	sp,sp,-28
   41b80:	d8800717 	ldw	r2,28(sp)
   41b84:	d9000015 	stw	r4,0(sp)
   41b88:	d809883a 	mov	r4,sp
   41b8c:	dfc00515 	stw	ra,20(sp)
   41b90:	d9c00615 	stw	r7,24(sp)
   41b94:	d9400115 	stw	r5,4(sp)
   41b98:	d9800215 	stw	r6,8(sp)
   41b9c:	d9c00315 	stw	r7,12(sp)
   41ba0:	d8800415 	stw	r2,16(sp)
   41ba4:	0041fac0 	call	41fac <__pack_d>
   41ba8:	dfc00517 	ldw	ra,20(sp)
   41bac:	dec00704 	addi	sp,sp,28
   41bb0:	f800283a 	ret

00041bb4 <udivmodsi4>:
   41bb4:	2005883a 	mov	r2,r4
   41bb8:	2900182e 	bgeu	r5,r4,41c1c <udivmodsi4+0x68>
   41bbc:	28001716 	blt	r5,zero,41c1c <udivmodsi4+0x68>
   41bc0:	01000804 	movi	r4,32
   41bc4:	00c00044 	movi	r3,1
   41bc8:	00000206 	br	41bd4 <udivmodsi4+0x20>
   41bcc:	20001126 	beq	r4,zero,41c14 <udivmodsi4+0x60>
   41bd0:	28000516 	blt	r5,zero,41be8 <udivmodsi4+0x34>
   41bd4:	294b883a 	add	r5,r5,r5
   41bd8:	213fffc4 	addi	r4,r4,-1
   41bdc:	18c7883a 	add	r3,r3,r3
   41be0:	28bffa36 	bltu	r5,r2,41bcc <_gp+0xffff0c14>
   41be4:	18000b26 	beq	r3,zero,41c14 <udivmodsi4+0x60>
   41be8:	0009883a 	mov	r4,zero
   41bec:	11400236 	bltu	r2,r5,41bf8 <udivmodsi4+0x44>
   41bf0:	1145c83a 	sub	r2,r2,r5
   41bf4:	20c8b03a 	or	r4,r4,r3
   41bf8:	1806d07a 	srli	r3,r3,1
   41bfc:	280ad07a 	srli	r5,r5,1
   41c00:	183ffa1e 	bne	r3,zero,41bec <_gp+0xffff0c34>
   41c04:	3000021e 	bne	r6,zero,41c10 <udivmodsi4+0x5c>
   41c08:	2005883a 	mov	r2,r4
   41c0c:	f800283a 	ret
   41c10:	f800283a 	ret
   41c14:	0009883a 	mov	r4,zero
   41c18:	003ffa06 	br	41c04 <_gp+0xffff0c4c>
   41c1c:	00c00044 	movi	r3,1
   41c20:	0009883a 	mov	r4,zero
   41c24:	003ff106 	br	41bec <_gp+0xffff0c34>

00041c28 <__divsi3>:
   41c28:	defffe04 	addi	sp,sp,-8
   41c2c:	dfc00115 	stw	ra,4(sp)
   41c30:	dc000015 	stw	r16,0(sp)
   41c34:	20000a16 	blt	r4,zero,41c60 <__divsi3+0x38>
   41c38:	0021883a 	mov	r16,zero
   41c3c:	28000b16 	blt	r5,zero,41c6c <__divsi3+0x44>
   41c40:	000d883a 	mov	r6,zero
   41c44:	0041bb40 	call	41bb4 <udivmodsi4>
   41c48:	80000126 	beq	r16,zero,41c50 <__divsi3+0x28>
   41c4c:	0085c83a 	sub	r2,zero,r2
   41c50:	dfc00117 	ldw	ra,4(sp)
   41c54:	dc000017 	ldw	r16,0(sp)
   41c58:	dec00204 	addi	sp,sp,8
   41c5c:	f800283a 	ret
   41c60:	0109c83a 	sub	r4,zero,r4
   41c64:	04000044 	movi	r16,1
   41c68:	283ff50e 	bge	r5,zero,41c40 <_gp+0xffff0c88>
   41c6c:	014bc83a 	sub	r5,zero,r5
   41c70:	8400005c 	xori	r16,r16,1
   41c74:	003ff206 	br	41c40 <_gp+0xffff0c88>

00041c78 <__modsi3>:
   41c78:	deffff04 	addi	sp,sp,-4
   41c7c:	dfc00015 	stw	ra,0(sp)
   41c80:	20000516 	blt	r4,zero,41c98 <__modsi3+0x20>
   41c84:	28000c16 	blt	r5,zero,41cb8 <__modsi3+0x40>
   41c88:	01800044 	movi	r6,1
   41c8c:	dfc00017 	ldw	ra,0(sp)
   41c90:	dec00104 	addi	sp,sp,4
   41c94:	0041bb41 	jmpi	41bb4 <udivmodsi4>
   41c98:	0109c83a 	sub	r4,zero,r4
   41c9c:	28000b16 	blt	r5,zero,41ccc <__modsi3+0x54>
   41ca0:	01800044 	movi	r6,1
   41ca4:	0041bb40 	call	41bb4 <udivmodsi4>
   41ca8:	0085c83a 	sub	r2,zero,r2
   41cac:	dfc00017 	ldw	ra,0(sp)
   41cb0:	dec00104 	addi	sp,sp,4
   41cb4:	f800283a 	ret
   41cb8:	014bc83a 	sub	r5,zero,r5
   41cbc:	01800044 	movi	r6,1
   41cc0:	dfc00017 	ldw	ra,0(sp)
   41cc4:	dec00104 	addi	sp,sp,4
   41cc8:	0041bb41 	jmpi	41bb4 <udivmodsi4>
   41ccc:	014bc83a 	sub	r5,zero,r5
   41cd0:	003ff306 	br	41ca0 <_gp+0xffff0ce8>

00041cd4 <__udivsi3>:
   41cd4:	000d883a 	mov	r6,zero
   41cd8:	0041bb41 	jmpi	41bb4 <udivmodsi4>

00041cdc <__umodsi3>:
   41cdc:	01800044 	movi	r6,1
   41ce0:	0041bb41 	jmpi	41bb4 <udivmodsi4>

00041ce4 <__mulsi3>:
   41ce4:	0005883a 	mov	r2,zero
   41ce8:	20000726 	beq	r4,zero,41d08 <__mulsi3+0x24>
   41cec:	20c0004c 	andi	r3,r4,1
   41cf0:	2008d07a 	srli	r4,r4,1
   41cf4:	18000126 	beq	r3,zero,41cfc <__mulsi3+0x18>
   41cf8:	1145883a 	add	r2,r2,r5
   41cfc:	294b883a 	add	r5,r5,r5
   41d00:	203ffa1e 	bne	r4,zero,41cec <_gp+0xffff0d34>
   41d04:	f800283a 	ret
   41d08:	f800283a 	ret

00041d0c <__clzsi2>:
   41d0c:	00bfffd4 	movui	r2,65535
   41d10:	11000b36 	bltu	r2,r4,41d40 <__clzsi2+0x34>
   41d14:	00803fc4 	movi	r2,255
   41d18:	11001e2e 	bgeu	r2,r4,41d94 <__clzsi2+0x88>
   41d1c:	00c00204 	movi	r3,8
   41d20:	20c8d83a 	srl	r4,r4,r3
   41d24:	00c00134 	movhi	r3,4
   41d28:	18dcea04 	addi	r3,r3,29608
   41d2c:	00800604 	movi	r2,24
   41d30:	1909883a 	add	r4,r3,r4
   41d34:	20c00003 	ldbu	r3,0(r4)
   41d38:	10c5c83a 	sub	r2,r2,r3
   41d3c:	f800283a 	ret
   41d40:	00804034 	movhi	r2,256
   41d44:	10bfffc4 	addi	r2,r2,-1
   41d48:	11000936 	bltu	r2,r4,41d70 <__clzsi2+0x64>
   41d4c:	00800404 	movi	r2,16
   41d50:	1007883a 	mov	r3,r2
   41d54:	20c8d83a 	srl	r4,r4,r3
   41d58:	00c00134 	movhi	r3,4
   41d5c:	18dcea04 	addi	r3,r3,29608
   41d60:	1909883a 	add	r4,r3,r4
   41d64:	20c00003 	ldbu	r3,0(r4)
   41d68:	10c5c83a 	sub	r2,r2,r3
   41d6c:	f800283a 	ret
   41d70:	00c00604 	movi	r3,24
   41d74:	20c8d83a 	srl	r4,r4,r3
   41d78:	00c00134 	movhi	r3,4
   41d7c:	18dcea04 	addi	r3,r3,29608
   41d80:	00800204 	movi	r2,8
   41d84:	1909883a 	add	r4,r3,r4
   41d88:	20c00003 	ldbu	r3,0(r4)
   41d8c:	10c5c83a 	sub	r2,r2,r3
   41d90:	f800283a 	ret
   41d94:	0007883a 	mov	r3,zero
   41d98:	20c8d83a 	srl	r4,r4,r3
   41d9c:	00c00134 	movhi	r3,4
   41da0:	18dcea04 	addi	r3,r3,29608
   41da4:	00800804 	movi	r2,32
   41da8:	1909883a 	add	r4,r3,r4
   41dac:	20c00003 	ldbu	r3,0(r4)
   41db0:	10c5c83a 	sub	r2,r2,r3
   41db4:	f800283a 	ret

00041db8 <__pack_f>:
   41db8:	21400017 	ldw	r5,0(r4)
   41dbc:	01800044 	movi	r6,1
   41dc0:	20c00317 	ldw	r3,12(r4)
   41dc4:	21c00117 	ldw	r7,4(r4)
   41dc8:	3140282e 	bgeu	r6,r5,41e6c <__pack_f+0xb4>
   41dcc:	00800104 	movi	r2,4
   41dd0:	28802326 	beq	r5,r2,41e60 <__pack_f+0xa8>
   41dd4:	00800084 	movi	r2,2
   41dd8:	28800f26 	beq	r5,r2,41e18 <__pack_f+0x60>
   41ddc:	18000e26 	beq	r3,zero,41e18 <__pack_f+0x60>
   41de0:	21000217 	ldw	r4,8(r4)
   41de4:	00bfe084 	movi	r2,-126
   41de8:	20802616 	blt	r4,r2,41e84 <__pack_f+0xcc>
   41dec:	00801fc4 	movi	r2,127
   41df0:	11001b16 	blt	r2,r4,41e60 <__pack_f+0xa8>
   41df4:	188a703a 	and	r5,r3,r2
   41df8:	00801004 	movi	r2,64
   41dfc:	28801126 	beq	r5,r2,41e44 <__pack_f+0x8c>
   41e00:	18c00fc4 	addi	r3,r3,63
   41e04:	18001316 	blt	r3,zero,41e54 <__pack_f+0x9c>
   41e08:	21001fc4 	addi	r4,r4,127
   41e0c:	180690ba 	slli	r3,r3,2
   41e10:	1806d27a 	srli	r3,r3,9
   41e14:	00000206 	br	41e20 <__pack_f+0x68>
   41e18:	0009883a 	mov	r4,zero
   41e1c:	0007883a 	mov	r3,zero
   41e20:	21003fcc 	andi	r4,r4,255
   41e24:	200895fa 	slli	r4,r4,23
   41e28:	380a97fa 	slli	r5,r7,31
   41e2c:	00802034 	movhi	r2,128
   41e30:	10bfffc4 	addi	r2,r2,-1
   41e34:	1886703a 	and	r3,r3,r2
   41e38:	1904b03a 	or	r2,r3,r4
   41e3c:	1144b03a 	or	r2,r2,r5
   41e40:	f800283a 	ret
   41e44:	1880200c 	andi	r2,r3,128
   41e48:	103fee26 	beq	r2,zero,41e04 <_gp+0xffff0e4c>
   41e4c:	18c01004 	addi	r3,r3,64
   41e50:	183fed0e 	bge	r3,zero,41e08 <_gp+0xffff0e50>
   41e54:	1806d07a 	srli	r3,r3,1
   41e58:	21002004 	addi	r4,r4,128
   41e5c:	003feb06 	br	41e0c <_gp+0xffff0e54>
   41e60:	013fffc4 	movi	r4,-1
   41e64:	0007883a 	mov	r3,zero
   41e68:	003fed06 	br	41e20 <_gp+0xffff0e68>
   41e6c:	18c00434 	orhi	r3,r3,16
   41e70:	00802034 	movhi	r2,128
   41e74:	10bfffc4 	addi	r2,r2,-1
   41e78:	1886703a 	and	r3,r3,r2
   41e7c:	013fffc4 	movi	r4,-1
   41e80:	003fe706 	br	41e20 <_gp+0xffff0e68>
   41e84:	1105c83a 	sub	r2,r2,r4
   41e88:	01000644 	movi	r4,25
   41e8c:	20801216 	blt	r4,r2,41ed8 <__pack_f+0x120>
   41e90:	3088983a 	sll	r4,r6,r2
   41e94:	1884d83a 	srl	r2,r3,r2
   41e98:	213fffc4 	addi	r4,r4,-1
   41e9c:	20c6703a 	and	r3,r4,r3
   41ea0:	1806c03a 	cmpne	r3,r3,zero
   41ea4:	1884b03a 	or	r2,r3,r2
   41ea8:	11001fcc 	andi	r4,r2,127
   41eac:	00c01004 	movi	r3,64
   41eb0:	20c00a1e 	bne	r4,r3,41edc <__pack_f+0x124>
   41eb4:	10c0200c 	andi	r3,r2,128
   41eb8:	18000126 	beq	r3,zero,41ec0 <__pack_f+0x108>
   41ebc:	10801004 	addi	r2,r2,64
   41ec0:	100690ba 	slli	r3,r2,2
   41ec4:	01100034 	movhi	r4,16384
   41ec8:	1105403a 	cmpgeu	r2,r2,r4
   41ecc:	1806d27a 	srli	r3,r3,9
   41ed0:	1009883a 	mov	r4,r2
   41ed4:	003fd206 	br	41e20 <_gp+0xffff0e68>
   41ed8:	0005883a 	mov	r2,zero
   41edc:	10800fc4 	addi	r2,r2,63
   41ee0:	003ff706 	br	41ec0 <_gp+0xffff0f08>

00041ee4 <__unpack_f>:
   41ee4:	20c00017 	ldw	r3,0(r4)
   41ee8:	00802034 	movhi	r2,128
   41eec:	10bfffc4 	addi	r2,r2,-1
   41ef0:	1808d5fa 	srli	r4,r3,23
   41ef4:	180cd7fa 	srli	r6,r3,31
   41ef8:	1884703a 	and	r2,r3,r2
   41efc:	21003fcc 	andi	r4,r4,255
   41f00:	29800115 	stw	r6,4(r5)
   41f04:	2000111e 	bne	r4,zero,41f4c <__unpack_f+0x68>
   41f08:	10001a26 	beq	r2,zero,41f74 <__unpack_f+0x90>
   41f0c:	00ffe084 	movi	r3,-126
   41f10:	100491fa 	slli	r2,r2,7
   41f14:	28c00215 	stw	r3,8(r5)
   41f18:	00c000c4 	movi	r3,3
   41f1c:	28c00015 	stw	r3,0(r5)
   41f20:	01900034 	movhi	r6,16384
   41f24:	31bfffc4 	addi	r6,r6,-1
   41f28:	30801036 	bltu	r6,r2,41f6c <__unpack_f+0x88>
   41f2c:	00ffe044 	movi	r3,-127
   41f30:	1085883a 	add	r2,r2,r2
   41f34:	1809883a 	mov	r4,r3
   41f38:	18ffffc4 	addi	r3,r3,-1
   41f3c:	30bffc2e 	bgeu	r6,r2,41f30 <_gp+0xffff0f78>
   41f40:	29000215 	stw	r4,8(r5)
   41f44:	28800315 	stw	r2,12(r5)
   41f48:	f800283a 	ret
   41f4c:	01803fc4 	movi	r6,255
   41f50:	21800b26 	beq	r4,r6,41f80 <__unpack_f+0x9c>
   41f54:	100491fa 	slli	r2,r2,7
   41f58:	213fe044 	addi	r4,r4,-127
   41f5c:	00c000c4 	movi	r3,3
   41f60:	10900034 	orhi	r2,r2,16384
   41f64:	29000215 	stw	r4,8(r5)
   41f68:	28c00015 	stw	r3,0(r5)
   41f6c:	28800315 	stw	r2,12(r5)
   41f70:	f800283a 	ret
   41f74:	00800084 	movi	r2,2
   41f78:	28800015 	stw	r2,0(r5)
   41f7c:	f800283a 	ret
   41f80:	10000526 	beq	r2,zero,41f98 <__unpack_f+0xb4>
   41f84:	18c0042c 	andhi	r3,r3,16
   41f88:	18000626 	beq	r3,zero,41fa4 <__unpack_f+0xc0>
   41f8c:	00c00044 	movi	r3,1
   41f90:	28c00015 	stw	r3,0(r5)
   41f94:	003ff506 	br	41f6c <_gp+0xffff0fb4>
   41f98:	00800104 	movi	r2,4
   41f9c:	28800015 	stw	r2,0(r5)
   41fa0:	f800283a 	ret
   41fa4:	28000015 	stw	zero,0(r5)
   41fa8:	003ff006 	br	41f6c <_gp+0xffff0fb4>

00041fac <__pack_d>:
   41fac:	20800017 	ldw	r2,0(r4)
   41fb0:	defff804 	addi	sp,sp,-32
   41fb4:	dcc00315 	stw	r19,12(sp)
   41fb8:	dc800215 	stw	r18,8(sp)
   41fbc:	dfc00715 	stw	ra,28(sp)
   41fc0:	dd800615 	stw	r22,24(sp)
   41fc4:	dd400515 	stw	r21,20(sp)
   41fc8:	dd000415 	stw	r20,16(sp)
   41fcc:	dc400115 	stw	r17,4(sp)
   41fd0:	dc000015 	stw	r16,0(sp)
   41fd4:	04800044 	movi	r18,1
   41fd8:	24400317 	ldw	r17,12(r4)
   41fdc:	24000417 	ldw	r16,16(r4)
   41fe0:	24c00117 	ldw	r19,4(r4)
   41fe4:	9080422e 	bgeu	r18,r2,420f0 <__pack_d+0x144>
   41fe8:	00c00104 	movi	r3,4
   41fec:	10c03c26 	beq	r2,r3,420e0 <__pack_d+0x134>
   41ff0:	00c00084 	movi	r3,2
   41ff4:	10c01926 	beq	r2,r3,4205c <__pack_d+0xb0>
   41ff8:	8c04b03a 	or	r2,r17,r16
   41ffc:	10001726 	beq	r2,zero,4205c <__pack_d+0xb0>
   42000:	21000217 	ldw	r4,8(r4)
   42004:	00bf0084 	movi	r2,-1022
   42008:	20804016 	blt	r4,r2,4210c <__pack_d+0x160>
   4200c:	0080ffc4 	movi	r2,1023
   42010:	11003316 	blt	r2,r4,420e0 <__pack_d+0x134>
   42014:	88803fcc 	andi	r2,r17,255
   42018:	00c02004 	movi	r3,128
   4201c:	10c02926 	beq	r2,r3,420c4 <__pack_d+0x118>
   42020:	88801fc4 	addi	r2,r17,127
   42024:	1463803a 	cmpltu	r17,r2,r17
   42028:	8c21883a 	add	r16,r17,r16
   4202c:	1023883a 	mov	r17,r2
   42030:	00880034 	movhi	r2,8192
   42034:	10bfffc4 	addi	r2,r2,-1
   42038:	14001c36 	bltu	r2,r16,420ac <__pack_d+0x100>
   4203c:	2100ffc4 	addi	r4,r4,1023
   42040:	8006963a 	slli	r3,r16,24
   42044:	8804d23a 	srli	r2,r17,8
   42048:	8020913a 	slli	r16,r16,4
   4204c:	2101ffcc 	andi	r4,r4,2047
   42050:	1884b03a 	or	r2,r3,r2
   42054:	8020d33a 	srli	r16,r16,12
   42058:	00000306 	br	42068 <__pack_d+0xbc>
   4205c:	0009883a 	mov	r4,zero
   42060:	0005883a 	mov	r2,zero
   42064:	0021883a 	mov	r16,zero
   42068:	2008953a 	slli	r4,r4,20
   4206c:	982697fa 	slli	r19,r19,31
   42070:	00c00434 	movhi	r3,16
   42074:	18ffffc4 	addi	r3,r3,-1
   42078:	80e0703a 	and	r16,r16,r3
   4207c:	8106b03a 	or	r3,r16,r4
   42080:	1cc6b03a 	or	r3,r3,r19
   42084:	dfc00717 	ldw	ra,28(sp)
   42088:	dd800617 	ldw	r22,24(sp)
   4208c:	dd400517 	ldw	r21,20(sp)
   42090:	dd000417 	ldw	r20,16(sp)
   42094:	dcc00317 	ldw	r19,12(sp)
   42098:	dc800217 	ldw	r18,8(sp)
   4209c:	dc400117 	ldw	r17,4(sp)
   420a0:	dc000017 	ldw	r16,0(sp)
   420a4:	dec00804 	addi	sp,sp,32
   420a8:	f800283a 	ret
   420ac:	800697fa 	slli	r3,r16,31
   420b0:	8804d07a 	srli	r2,r17,1
   420b4:	21010004 	addi	r4,r4,1024
   420b8:	8020d07a 	srli	r16,r16,1
   420bc:	18a2b03a 	or	r17,r3,r2
   420c0:	003fdf06 	br	42040 <_gp+0xffff1088>
   420c4:	88c0400c 	andi	r3,r17,256
   420c8:	183fd926 	beq	r3,zero,42030 <_gp+0xffff1078>
   420cc:	8885883a 	add	r2,r17,r2
   420d0:	1463803a 	cmpltu	r17,r2,r17
   420d4:	8c21883a 	add	r16,r17,r16
   420d8:	1023883a 	mov	r17,r2
   420dc:	003fd406 	br	42030 <_gp+0xffff1078>
   420e0:	0101ffc4 	movi	r4,2047
   420e4:	0005883a 	mov	r2,zero
   420e8:	0021883a 	mov	r16,zero
   420ec:	003fde06 	br	42068 <_gp+0xffff10b0>
   420f0:	84000234 	orhi	r16,r16,8
   420f4:	00c00434 	movhi	r3,16
   420f8:	18ffffc4 	addi	r3,r3,-1
   420fc:	8805883a 	mov	r2,r17
   42100:	80e0703a 	and	r16,r16,r3
   42104:	0101ffc4 	movi	r4,2047
   42108:	003fd706 	br	42068 <_gp+0xffff10b0>
   4210c:	1129c83a 	sub	r20,r2,r4
   42110:	00800e04 	movi	r2,56
   42114:	15002716 	blt	r2,r20,421b4 <__pack_d+0x208>
   42118:	800b883a 	mov	r5,r16
   4211c:	a00d883a 	mov	r6,r20
   42120:	8809883a 	mov	r4,r17
   42124:	00422d40 	call	422d4 <__lshrdi3>
   42128:	9009883a 	mov	r4,r18
   4212c:	000b883a 	mov	r5,zero
   42130:	a00d883a 	mov	r6,r20
   42134:	102d883a 	mov	r22,r2
   42138:	182b883a 	mov	r21,r3
   4213c:	00423180 	call	42318 <__ashldi3>
   42140:	1009003a 	cmpeq	r4,r2,zero
   42144:	1907c83a 	sub	r3,r3,r4
   42148:	10bfffc4 	addi	r2,r2,-1
   4214c:	1c20703a 	and	r16,r3,r16
   42150:	1444703a 	and	r2,r2,r17
   42154:	1404b03a 	or	r2,r2,r16
   42158:	1004c03a 	cmpne	r2,r2,zero
   4215c:	1584b03a 	or	r2,r2,r22
   42160:	11003fcc 	andi	r4,r2,255
   42164:	01402004 	movi	r5,128
   42168:	a807883a 	mov	r3,r21
   4216c:	2140131e 	bne	r4,r5,421bc <__pack_d+0x210>
   42170:	1140400c 	andi	r5,r2,256
   42174:	28000426 	beq	r5,zero,42188 <__pack_d+0x1dc>
   42178:	1109883a 	add	r4,r2,r4
   4217c:	2085803a 	cmpltu	r2,r4,r2
   42180:	1547883a 	add	r3,r2,r21
   42184:	2005883a 	mov	r2,r4
   42188:	1808963a 	slli	r4,r3,24
   4218c:	1004d23a 	srli	r2,r2,8
   42190:	1820913a 	slli	r16,r3,4
   42194:	01440034 	movhi	r5,4096
   42198:	297fffc4 	addi	r5,r5,-1
   4219c:	2084b03a 	or	r2,r4,r2
   421a0:	8020d33a 	srli	r16,r16,12
   421a4:	01000044 	movi	r4,1
   421a8:	28ffaf36 	bltu	r5,r3,42068 <_gp+0xffff10b0>
   421ac:	0009883a 	mov	r4,zero
   421b0:	003fad06 	br	42068 <_gp+0xffff10b0>
   421b4:	0005883a 	mov	r2,zero
   421b8:	0007883a 	mov	r3,zero
   421bc:	11001fc4 	addi	r4,r2,127
   421c0:	2085803a 	cmpltu	r2,r4,r2
   421c4:	10c7883a 	add	r3,r2,r3
   421c8:	2005883a 	mov	r2,r4
   421cc:	003fee06 	br	42188 <_gp+0xffff11d0>

000421d0 <__unpack_d>:
   421d0:	21800117 	ldw	r6,4(r4)
   421d4:	20c00017 	ldw	r3,0(r4)
   421d8:	3004d7fa 	srli	r2,r6,31
   421dc:	3008d53a 	srli	r4,r6,20
   421e0:	28800115 	stw	r2,4(r5)
   421e4:	2101ffcc 	andi	r4,r4,2047
   421e8:	00800434 	movhi	r2,16
   421ec:	10bfffc4 	addi	r2,r2,-1
   421f0:	3084703a 	and	r2,r6,r2
   421f4:	20001a1e 	bne	r4,zero,42260 <__unpack_d+0x90>
   421f8:	1888b03a 	or	r4,r3,r2
   421fc:	20002626 	beq	r4,zero,42298 <__unpack_d+0xc8>
   42200:	1808d63a 	srli	r4,r3,24
   42204:	1004923a 	slli	r2,r2,8
   42208:	01bf0084 	movi	r6,-1022
   4220c:	29800215 	stw	r6,8(r5)
   42210:	2084b03a 	or	r2,r4,r2
   42214:	010000c4 	movi	r4,3
   42218:	29000015 	stw	r4,0(r5)
   4221c:	02040034 	movhi	r8,4096
   42220:	423fffc4 	addi	r8,r8,-1
   42224:	1806923a 	slli	r3,r3,8
   42228:	40801836 	bltu	r8,r2,4228c <__unpack_d+0xbc>
   4222c:	013f0044 	movi	r4,-1023
   42230:	18cd883a 	add	r6,r3,r3
   42234:	30c7803a 	cmpltu	r3,r6,r3
   42238:	1085883a 	add	r2,r2,r2
   4223c:	1885883a 	add	r2,r3,r2
   42240:	200f883a 	mov	r7,r4
   42244:	3007883a 	mov	r3,r6
   42248:	213fffc4 	addi	r4,r4,-1
   4224c:	40bff82e 	bgeu	r8,r2,42230 <_gp+0xffff1278>
   42250:	29c00215 	stw	r7,8(r5)
   42254:	28c00315 	stw	r3,12(r5)
   42258:	28800415 	stw	r2,16(r5)
   4225c:	f800283a 	ret
   42260:	01c1ffc4 	movi	r7,2047
   42264:	21c00f26 	beq	r4,r7,422a4 <__unpack_d+0xd4>
   42268:	180cd63a 	srli	r6,r3,24
   4226c:	1004923a 	slli	r2,r2,8
   42270:	213f0044 	addi	r4,r4,-1023
   42274:	1806923a 	slli	r3,r3,8
   42278:	3084b03a 	or	r2,r6,r2
   4227c:	29000215 	stw	r4,8(r5)
   42280:	010000c4 	movi	r4,3
   42284:	10840034 	orhi	r2,r2,4096
   42288:	29000015 	stw	r4,0(r5)
   4228c:	28c00315 	stw	r3,12(r5)
   42290:	28800415 	stw	r2,16(r5)
   42294:	f800283a 	ret
   42298:	00800084 	movi	r2,2
   4229c:	28800015 	stw	r2,0(r5)
   422a0:	f800283a 	ret
   422a4:	1888b03a 	or	r4,r3,r2
   422a8:	20000526 	beq	r4,zero,422c0 <__unpack_d+0xf0>
   422ac:	3180022c 	andhi	r6,r6,8
   422b0:	30000626 	beq	r6,zero,422cc <__unpack_d+0xfc>
   422b4:	01000044 	movi	r4,1
   422b8:	29000015 	stw	r4,0(r5)
   422bc:	003ff306 	br	4228c <_gp+0xffff12d4>
   422c0:	00800104 	movi	r2,4
   422c4:	28800015 	stw	r2,0(r5)
   422c8:	f800283a 	ret
   422cc:	28000015 	stw	zero,0(r5)
   422d0:	003fee06 	br	4228c <_gp+0xffff12d4>

000422d4 <__lshrdi3>:
   422d4:	2005883a 	mov	r2,r4
   422d8:	2807883a 	mov	r3,r5
   422dc:	30000826 	beq	r6,zero,42300 <__lshrdi3+0x2c>
   422e0:	01000804 	movi	r4,32
   422e4:	2189c83a 	sub	r4,r4,r6
   422e8:	0100060e 	bge	zero,r4,42304 <__lshrdi3+0x30>
   422ec:	1184d83a 	srl	r2,r2,r6
   422f0:	2908983a 	sll	r4,r5,r4
   422f4:	298cd83a 	srl	r6,r5,r6
   422f8:	2084b03a 	or	r2,r4,r2
   422fc:	3007883a 	mov	r3,r6
   42300:	f800283a 	ret
   42304:	0105c83a 	sub	r2,zero,r4
   42308:	000d883a 	mov	r6,zero
   4230c:	2884d83a 	srl	r2,r5,r2
   42310:	3007883a 	mov	r3,r6
   42314:	003ffa06 	br	42300 <_gp+0xffff1348>

00042318 <__ashldi3>:
   42318:	2005883a 	mov	r2,r4
   4231c:	2807883a 	mov	r3,r5
   42320:	30000826 	beq	r6,zero,42344 <__ashldi3+0x2c>
   42324:	01000804 	movi	r4,32
   42328:	2189c83a 	sub	r4,r4,r6
   4232c:	0100060e 	bge	zero,r4,42348 <__ashldi3+0x30>
   42330:	1108d83a 	srl	r4,r2,r4
   42334:	2986983a 	sll	r3,r5,r6
   42338:	118c983a 	sll	r6,r2,r6
   4233c:	20c6b03a 	or	r3,r4,r3
   42340:	3005883a 	mov	r2,r6
   42344:	f800283a 	ret
   42348:	0107c83a 	sub	r3,zero,r4
   4234c:	000d883a 	mov	r6,zero
   42350:	10c6983a 	sll	r3,r2,r3
   42354:	3005883a 	mov	r2,r6
   42358:	003ffa06 	br	42344 <_gp+0xffff138c>

0004235c <memset>:
   4235c:	00c000c4 	movi	r3,3
   42360:	2005883a 	mov	r2,r4
   42364:	29403fcc 	andi	r5,r5,255
   42368:	19802d2e 	bgeu	r3,r6,42420 <memset+0xc4>
   4236c:	20c6703a 	and	r3,r4,r3
   42370:	18002e1e 	bne	r3,zero,4242c <memset+0xd0>
   42374:	2806923a 	slli	r3,r5,8
   42378:	010003c4 	movi	r4,15
   4237c:	3011883a 	mov	r8,r6
   42380:	1946b03a 	or	r3,r3,r5
   42384:	180e943a 	slli	r7,r3,16
   42388:	38ceb03a 	or	r7,r7,r3
   4238c:	1007883a 	mov	r3,r2
   42390:	21800f2e 	bgeu	r4,r6,423d0 <memset+0x74>
   42394:	19c00015 	stw	r7,0(r3)
   42398:	19c00115 	stw	r7,4(r3)
   4239c:	19c00215 	stw	r7,8(r3)
   423a0:	19c00315 	stw	r7,12(r3)
   423a4:	423ffc04 	addi	r8,r8,-16
   423a8:	18c00404 	addi	r3,r3,16
   423ac:	223ff936 	bltu	r4,r8,42394 <_gp+0xffff13dc>
   423b0:	30fffc04 	addi	r3,r6,-16
   423b4:	1806d13a 	srli	r3,r3,4
   423b8:	318003cc 	andi	r6,r6,15
   423bc:	010000c4 	movi	r4,3
   423c0:	18c00044 	addi	r3,r3,1
   423c4:	1806913a 	slli	r3,r3,4
   423c8:	10c7883a 	add	r3,r2,r3
   423cc:	21800e2e 	bgeu	r4,r6,42408 <memset+0xac>
   423d0:	1813883a 	mov	r9,r3
   423d4:	3011883a 	mov	r8,r6
   423d8:	010000c4 	movi	r4,3
   423dc:	49c00015 	stw	r7,0(r9)
   423e0:	423fff04 	addi	r8,r8,-4
   423e4:	4a400104 	addi	r9,r9,4
   423e8:	223ffc36 	bltu	r4,r8,423dc <_gp+0xffff1424>
   423ec:	313fff04 	addi	r4,r6,-4
   423f0:	2008d0ba 	srli	r4,r4,2
   423f4:	318000cc 	andi	r6,r6,3
   423f8:	21000044 	addi	r4,r4,1
   423fc:	2109883a 	add	r4,r4,r4
   42400:	2109883a 	add	r4,r4,r4
   42404:	1907883a 	add	r3,r3,r4
   42408:	30000a26 	beq	r6,zero,42434 <memset+0xd8>
   4240c:	198d883a 	add	r6,r3,r6
   42410:	19400005 	stb	r5,0(r3)
   42414:	18c00044 	addi	r3,r3,1
   42418:	19bffd1e 	bne	r3,r6,42410 <_gp+0xffff1458>
   4241c:	f800283a 	ret
   42420:	2007883a 	mov	r3,r4
   42424:	303ff91e 	bne	r6,zero,4240c <_gp+0xffff1454>
   42428:	00000206 	br	42434 <memset+0xd8>
   4242c:	2007883a 	mov	r3,r4
   42430:	003ff606 	br	4240c <_gp+0xffff1454>
   42434:	f800283a 	ret

00042438 <_putc_r>:
   42438:	defffc04 	addi	sp,sp,-16
   4243c:	dc000215 	stw	r16,8(sp)
   42440:	dfc00315 	stw	ra,12(sp)
   42444:	2021883a 	mov	r16,r4
   42448:	20000226 	beq	r4,zero,42454 <_putc_r+0x1c>
   4244c:	20800e17 	ldw	r2,56(r4)
   42450:	10001d26 	beq	r2,zero,424c8 <_putc_r+0x90>
   42454:	30800217 	ldw	r2,8(r6)
   42458:	10bfffc4 	addi	r2,r2,-1
   4245c:	30800215 	stw	r2,8(r6)
   42460:	10000a16 	blt	r2,zero,4248c <_putc_r+0x54>
   42464:	30800017 	ldw	r2,0(r6)
   42468:	11400005 	stb	r5,0(r2)
   4246c:	30800017 	ldw	r2,0(r6)
   42470:	10c00044 	addi	r3,r2,1
   42474:	10800003 	ldbu	r2,0(r2)
   42478:	30c00015 	stw	r3,0(r6)
   4247c:	dfc00317 	ldw	ra,12(sp)
   42480:	dc000217 	ldw	r16,8(sp)
   42484:	dec00404 	addi	sp,sp,16
   42488:	f800283a 	ret
   4248c:	30c00617 	ldw	r3,24(r6)
   42490:	10c01316 	blt	r2,r3,424e0 <_putc_r+0xa8>
   42494:	30800017 	ldw	r2,0(r6)
   42498:	01000284 	movi	r4,10
   4249c:	11400005 	stb	r5,0(r2)
   424a0:	30c00017 	ldw	r3,0(r6)
   424a4:	19400003 	ldbu	r5,0(r3)
   424a8:	29000d26 	beq	r5,r4,424e0 <_putc_r+0xa8>
   424ac:	18c00044 	addi	r3,r3,1
   424b0:	2805883a 	mov	r2,r5
   424b4:	30c00015 	stw	r3,0(r6)
   424b8:	dfc00317 	ldw	ra,12(sp)
   424bc:	dc000217 	ldw	r16,8(sp)
   424c0:	dec00404 	addi	sp,sp,16
   424c4:	f800283a 	ret
   424c8:	d9400015 	stw	r5,0(sp)
   424cc:	d9800115 	stw	r6,4(sp)
   424d0:	0042c680 	call	42c68 <__sinit>
   424d4:	d9800117 	ldw	r6,4(sp)
   424d8:	d9400017 	ldw	r5,0(sp)
   424dc:	003fdd06 	br	42454 <_gp+0xffff149c>
   424e0:	8009883a 	mov	r4,r16
   424e4:	dfc00317 	ldw	ra,12(sp)
   424e8:	dc000217 	ldw	r16,8(sp)
   424ec:	dec00404 	addi	sp,sp,16
   424f0:	00426e01 	jmpi	426e0 <__swbuf_r>

000424f4 <putc>:
   424f4:	defffc04 	addi	sp,sp,-16
   424f8:	dc400115 	stw	r17,4(sp)
   424fc:	04400174 	movhi	r17,5
   42500:	8c63f404 	addi	r17,r17,-28720
   42504:	88800017 	ldw	r2,0(r17)
   42508:	dc800215 	stw	r18,8(sp)
   4250c:	dc000015 	stw	r16,0(sp)
   42510:	dfc00315 	stw	ra,12(sp)
   42514:	2025883a 	mov	r18,r4
   42518:	2821883a 	mov	r16,r5
   4251c:	10000226 	beq	r2,zero,42528 <putc+0x34>
   42520:	10c00e17 	ldw	r3,56(r2)
   42524:	18002126 	beq	r3,zero,425ac <putc+0xb8>
   42528:	80800217 	ldw	r2,8(r16)
   4252c:	10bfffc4 	addi	r2,r2,-1
   42530:	80800215 	stw	r2,8(r16)
   42534:	10000c16 	blt	r2,zero,42568 <putc+0x74>
   42538:	80800017 	ldw	r2,0(r16)
   4253c:	14800005 	stb	r18,0(r2)
   42540:	80800017 	ldw	r2,0(r16)
   42544:	10c00044 	addi	r3,r2,1
   42548:	10800003 	ldbu	r2,0(r2)
   4254c:	80c00015 	stw	r3,0(r16)
   42550:	dfc00317 	ldw	ra,12(sp)
   42554:	dc800217 	ldw	r18,8(sp)
   42558:	dc400117 	ldw	r17,4(sp)
   4255c:	dc000017 	ldw	r16,0(sp)
   42560:	dec00404 	addi	sp,sp,16
   42564:	f800283a 	ret
   42568:	80c00617 	ldw	r3,24(r16)
   4256c:	10c01216 	blt	r2,r3,425b8 <putc+0xc4>
   42570:	80800017 	ldw	r2,0(r16)
   42574:	01000284 	movi	r4,10
   42578:	14800005 	stb	r18,0(r2)
   4257c:	80c00017 	ldw	r3,0(r16)
   42580:	19400003 	ldbu	r5,0(r3)
   42584:	29001526 	beq	r5,r4,425dc <putc+0xe8>
   42588:	18c00044 	addi	r3,r3,1
   4258c:	2805883a 	mov	r2,r5
   42590:	80c00015 	stw	r3,0(r16)
   42594:	dfc00317 	ldw	ra,12(sp)
   42598:	dc800217 	ldw	r18,8(sp)
   4259c:	dc400117 	ldw	r17,4(sp)
   425a0:	dc000017 	ldw	r16,0(sp)
   425a4:	dec00404 	addi	sp,sp,16
   425a8:	f800283a 	ret
   425ac:	1009883a 	mov	r4,r2
   425b0:	0042c680 	call	42c68 <__sinit>
   425b4:	003fdc06 	br	42528 <_gp+0xffff1570>
   425b8:	89000017 	ldw	r4,0(r17)
   425bc:	900b883a 	mov	r5,r18
   425c0:	800d883a 	mov	r6,r16
   425c4:	dfc00317 	ldw	ra,12(sp)
   425c8:	dc800217 	ldw	r18,8(sp)
   425cc:	dc400117 	ldw	r17,4(sp)
   425d0:	dc000017 	ldw	r16,0(sp)
   425d4:	dec00404 	addi	sp,sp,16
   425d8:	00426e01 	jmpi	426e0 <__swbuf_r>
   425dc:	89000017 	ldw	r4,0(r17)
   425e0:	003ff706 	br	425c0 <_gp+0xffff1608>

000425e4 <strncmp>:
   425e4:	30001826 	beq	r6,zero,42648 <strncmp+0x64>
   425e8:	2904b03a 	or	r2,r5,r4
   425ec:	108000cc 	andi	r2,r2,3
   425f0:	10001726 	beq	r2,zero,42650 <strncmp+0x6c>
   425f4:	31bfffc4 	addi	r6,r6,-1
   425f8:	20800007 	ldb	r2,0(r4)
   425fc:	28c00007 	ldb	r3,0(r5)
   42600:	10c0331e 	bne	r2,r3,426d0 <strncmp+0xec>
   42604:	30001026 	beq	r6,zero,42648 <strncmp+0x64>
   42608:	10000f26 	beq	r2,zero,42648 <strncmp+0x64>
   4260c:	20800044 	addi	r2,r4,1
   42610:	29400044 	addi	r5,r5,1
   42614:	2189883a 	add	r4,r4,r6
   42618:	00000406 	br	4262c <strncmp+0x48>
   4261c:	11000a26 	beq	r2,r4,42648 <strncmp+0x64>
   42620:	18000926 	beq	r3,zero,42648 <strncmp+0x64>
   42624:	10800044 	addi	r2,r2,1
   42628:	29400044 	addi	r5,r5,1
   4262c:	10c00007 	ldb	r3,0(r2)
   42630:	29800007 	ldb	r6,0(r5)
   42634:	19bff926 	beq	r3,r6,4261c <_gp+0xffff1664>
   42638:	10c00003 	ldbu	r3,0(r2)
   4263c:	28800003 	ldbu	r2,0(r5)
   42640:	1885c83a 	sub	r2,r3,r2
   42644:	f800283a 	ret
   42648:	0005883a 	mov	r2,zero
   4264c:	f800283a 	ret
   42650:	024000c4 	movi	r9,3
   42654:	49bfe72e 	bgeu	r9,r6,425f4 <_gp+0xffff163c>
   42658:	20800017 	ldw	r2,0(r4)
   4265c:	28c00017 	ldw	r3,0(r5)
   42660:	10ffe41e 	bne	r2,r3,425f4 <_gp+0xffff163c>
   42664:	30ffff04 	addi	r3,r6,-4
   42668:	183ff726 	beq	r3,zero,42648 <_gp+0xffff1690>
   4266c:	02ffbff4 	movhi	r11,65279
   42670:	5affbfc4 	addi	r11,r11,-257
   42674:	12cd883a 	add	r6,r2,r11
   42678:	0084303a 	nor	r2,zero,r2
   4267c:	3084703a 	and	r2,r6,r2
   42680:	02a02074 	movhi	r10,32897
   42684:	52a02004 	addi	r10,r10,-32640
   42688:	1284703a 	and	r2,r2,r10
   4268c:	10000b26 	beq	r2,zero,426bc <strncmp+0xd8>
   42690:	003fed06 	br	42648 <_gp+0xffff1690>
   42694:	21800017 	ldw	r6,0(r4)
   42698:	28800017 	ldw	r2,0(r5)
   4269c:	32d1883a 	add	r8,r6,r11
   426a0:	018e303a 	nor	r7,zero,r6
   426a4:	41ce703a 	and	r7,r8,r7
   426a8:	3a8e703a 	and	r7,r7,r10
   426ac:	30800a1e 	bne	r6,r2,426d8 <strncmp+0xf4>
   426b0:	18ffff04 	addi	r3,r3,-4
   426b4:	183fe426 	beq	r3,zero,42648 <_gp+0xffff1690>
   426b8:	383fe31e 	bne	r7,zero,42648 <_gp+0xffff1690>
   426bc:	21000104 	addi	r4,r4,4
   426c0:	29400104 	addi	r5,r5,4
   426c4:	48fff336 	bltu	r9,r3,42694 <_gp+0xffff16dc>
   426c8:	19bfffc4 	addi	r6,r3,-1
   426cc:	183fca1e 	bne	r3,zero,425f8 <_gp+0xffff1640>
   426d0:	2005883a 	mov	r2,r4
   426d4:	003fd806 	br	42638 <_gp+0xffff1680>
   426d8:	19bfffc4 	addi	r6,r3,-1
   426dc:	003fc606 	br	425f8 <_gp+0xffff1640>

000426e0 <__swbuf_r>:
   426e0:	defffc04 	addi	sp,sp,-16
   426e4:	dc800215 	stw	r18,8(sp)
   426e8:	dc400115 	stw	r17,4(sp)
   426ec:	dc000015 	stw	r16,0(sp)
   426f0:	dfc00315 	stw	ra,12(sp)
   426f4:	2023883a 	mov	r17,r4
   426f8:	2825883a 	mov	r18,r5
   426fc:	3021883a 	mov	r16,r6
   42700:	20000226 	beq	r4,zero,4270c <__swbuf_r+0x2c>
   42704:	20800e17 	ldw	r2,56(r4)
   42708:	10003b26 	beq	r2,zero,427f8 <__swbuf_r+0x118>
   4270c:	8080030b 	ldhu	r2,12(r16)
   42710:	80c00617 	ldw	r3,24(r16)
   42714:	1080020c 	andi	r2,r2,8
   42718:	10bfffcc 	andi	r2,r2,65535
   4271c:	10a0001c 	xori	r2,r2,32768
   42720:	80c00215 	stw	r3,8(r16)
   42724:	10a00004 	addi	r2,r2,-32768
   42728:	10002226 	beq	r2,zero,427b4 <__swbuf_r+0xd4>
   4272c:	80800417 	ldw	r2,16(r16)
   42730:	10002026 	beq	r2,zero,427b4 <__swbuf_r+0xd4>
   42734:	80c00017 	ldw	r3,0(r16)
   42738:	81000517 	ldw	r4,20(r16)
   4273c:	94803fcc 	andi	r18,r18,255
   42740:	1885c83a 	sub	r2,r3,r2
   42744:	1100250e 	bge	r2,r4,427dc <__swbuf_r+0xfc>
   42748:	10800044 	addi	r2,r2,1
   4274c:	81400217 	ldw	r5,8(r16)
   42750:	19000044 	addi	r4,r3,1
   42754:	297fffc4 	addi	r5,r5,-1
   42758:	81400215 	stw	r5,8(r16)
   4275c:	1c800005 	stb	r18,0(r3)
   42760:	80c00517 	ldw	r3,20(r16)
   42764:	81000015 	stw	r4,0(r16)
   42768:	18800c26 	beq	r3,r2,4279c <__swbuf_r+0xbc>
   4276c:	8080030b 	ldhu	r2,12(r16)
   42770:	1080004c 	andi	r2,r2,1
   42774:	10000226 	beq	r2,zero,42780 <__swbuf_r+0xa0>
   42778:	00800284 	movi	r2,10
   4277c:	90800726 	beq	r18,r2,4279c <__swbuf_r+0xbc>
   42780:	9005883a 	mov	r2,r18
   42784:	dfc00317 	ldw	ra,12(sp)
   42788:	dc800217 	ldw	r18,8(sp)
   4278c:	dc400117 	ldw	r17,4(sp)
   42790:	dc000017 	ldw	r16,0(sp)
   42794:	dec00404 	addi	sp,sp,16
   42798:	f800283a 	ret
   4279c:	8809883a 	mov	r4,r17
   427a0:	800b883a 	mov	r5,r16
   427a4:	00429ac0 	call	429ac <_fflush_r>
   427a8:	103ff526 	beq	r2,zero,42780 <_gp+0xffff17c8>
   427ac:	04bfffc4 	movi	r18,-1
   427b0:	003ff306 	br	42780 <_gp+0xffff17c8>
   427b4:	8809883a 	mov	r4,r17
   427b8:	800b883a 	mov	r5,r16
   427bc:	00428380 	call	42838 <__swsetup_r>
   427c0:	10000f1e 	bne	r2,zero,42800 <__swbuf_r+0x120>
   427c4:	80800417 	ldw	r2,16(r16)
   427c8:	80c00017 	ldw	r3,0(r16)
   427cc:	81000517 	ldw	r4,20(r16)
   427d0:	94803fcc 	andi	r18,r18,255
   427d4:	1885c83a 	sub	r2,r3,r2
   427d8:	113fdb16 	blt	r2,r4,42748 <_gp+0xffff1790>
   427dc:	8809883a 	mov	r4,r17
   427e0:	800b883a 	mov	r5,r16
   427e4:	00429ac0 	call	429ac <_fflush_r>
   427e8:	103ff01e 	bne	r2,zero,427ac <_gp+0xffff17f4>
   427ec:	80c00017 	ldw	r3,0(r16)
   427f0:	00800044 	movi	r2,1
   427f4:	003fd506 	br	4274c <_gp+0xffff1794>
   427f8:	0042c680 	call	42c68 <__sinit>
   427fc:	003fc306 	br	4270c <_gp+0xffff1754>
   42800:	8080030b 	ldhu	r2,12(r16)
   42804:	04bfffc4 	movi	r18,-1
   42808:	10801014 	ori	r2,r2,64
   4280c:	8080030d 	sth	r2,12(r16)
   42810:	00800244 	movi	r2,9
   42814:	88800015 	stw	r2,0(r17)
   42818:	003fd906 	br	42780 <_gp+0xffff17c8>

0004281c <__swbuf>:
   4281c:	00c00174 	movhi	r3,5
   42820:	18e3f404 	addi	r3,r3,-28720
   42824:	2005883a 	mov	r2,r4
   42828:	19000017 	ldw	r4,0(r3)
   4282c:	280d883a 	mov	r6,r5
   42830:	100b883a 	mov	r5,r2
   42834:	00426e01 	jmpi	426e0 <__swbuf_r>

00042838 <__swsetup_r>:
   42838:	00800174 	movhi	r2,5
   4283c:	10a3f404 	addi	r2,r2,-28720
   42840:	10800017 	ldw	r2,0(r2)
   42844:	defffd04 	addi	sp,sp,-12
   42848:	dc400115 	stw	r17,4(sp)
   4284c:	dc000015 	stw	r16,0(sp)
   42850:	dfc00215 	stw	ra,8(sp)
   42854:	2023883a 	mov	r17,r4
   42858:	2821883a 	mov	r16,r5
   4285c:	10000226 	beq	r2,zero,42868 <__swsetup_r+0x30>
   42860:	10c00e17 	ldw	r3,56(r2)
   42864:	18003d26 	beq	r3,zero,4295c <__swsetup_r+0x124>
   42868:	8080030b 	ldhu	r2,12(r16)
   4286c:	10c0020c 	andi	r3,r2,8
   42870:	18ffffcc 	andi	r3,r3,65535
   42874:	18e0001c 	xori	r3,r3,32768
   42878:	18e00004 	addi	r3,r3,-32768
   4287c:	18001226 	beq	r3,zero,428c8 <__swsetup_r+0x90>
   42880:	80c00417 	ldw	r3,16(r16)
   42884:	18001f26 	beq	r3,zero,42904 <__swsetup_r+0xcc>
   42888:	1100004c 	andi	r4,r2,1
   4288c:	2000261e 	bne	r4,zero,42928 <__swsetup_r+0xf0>
   42890:	1080008c 	andi	r2,r2,2
   42894:	10bfffcc 	andi	r2,r2,65535
   42898:	10a0001c 	xori	r2,r2,32768
   4289c:	10a00004 	addi	r2,r2,-32768
   428a0:	1000311e 	bne	r2,zero,42968 <__swsetup_r+0x130>
   428a4:	80800517 	ldw	r2,20(r16)
   428a8:	80800215 	stw	r2,8(r16)
   428ac:	18002326 	beq	r3,zero,4293c <__swsetup_r+0x104>
   428b0:	0005883a 	mov	r2,zero
   428b4:	dfc00217 	ldw	ra,8(sp)
   428b8:	dc400117 	ldw	r17,4(sp)
   428bc:	dc000017 	ldw	r16,0(sp)
   428c0:	dec00304 	addi	sp,sp,12
   428c4:	f800283a 	ret
   428c8:	10c0040c 	andi	r3,r2,16
   428cc:	18ffffcc 	andi	r3,r3,65535
   428d0:	18e0001c 	xori	r3,r3,32768
   428d4:	18e00004 	addi	r3,r3,-32768
   428d8:	18001e26 	beq	r3,zero,42954 <__swsetup_r+0x11c>
   428dc:	10c0010c 	andi	r3,r2,4
   428e0:	18ffffcc 	andi	r3,r3,65535
   428e4:	18e0001c 	xori	r3,r3,32768
   428e8:	18e00004 	addi	r3,r3,-32768
   428ec:	1800211e 	bne	r3,zero,42974 <__swsetup_r+0x13c>
   428f0:	80c00417 	ldw	r3,16(r16)
   428f4:	11400214 	ori	r5,r2,8
   428f8:	8140030d 	sth	r5,12(r16)
   428fc:	2805883a 	mov	r2,r5
   42900:	183fe11e 	bne	r3,zero,42888 <_gp+0xffff18d0>
   42904:	1140a00c 	andi	r5,r2,640
   42908:	01008004 	movi	r4,512
   4290c:	293fde26 	beq	r5,r4,42888 <_gp+0xffff18d0>
   42910:	8809883a 	mov	r4,r17
   42914:	800b883a 	mov	r5,r16
   42918:	004341c0 	call	4341c <__smakebuf_r>
   4291c:	8080030b 	ldhu	r2,12(r16)
   42920:	80c00417 	ldw	r3,16(r16)
   42924:	003fd806 	br	42888 <_gp+0xffff18d0>
   42928:	80800517 	ldw	r2,20(r16)
   4292c:	80000215 	stw	zero,8(r16)
   42930:	0085c83a 	sub	r2,zero,r2
   42934:	80800615 	stw	r2,24(r16)
   42938:	183fdd1e 	bne	r3,zero,428b0 <_gp+0xffff18f8>
   4293c:	8080030b 	ldhu	r2,12(r16)
   42940:	1080200c 	andi	r2,r2,128
   42944:	10bfffcc 	andi	r2,r2,65535
   42948:	10a0001c 	xori	r2,r2,32768
   4294c:	10a00004 	addi	r2,r2,-32768
   42950:	103fd826 	beq	r2,zero,428b4 <_gp+0xffff18fc>
   42954:	00bfffc4 	movi	r2,-1
   42958:	003fd606 	br	428b4 <_gp+0xffff18fc>
   4295c:	1009883a 	mov	r4,r2
   42960:	0042c680 	call	42c68 <__sinit>
   42964:	003fc006 	br	42868 <_gp+0xffff18b0>
   42968:	0005883a 	mov	r2,zero
   4296c:	80800215 	stw	r2,8(r16)
   42970:	003fce06 	br	428ac <_gp+0xffff18f4>
   42974:	81400c17 	ldw	r5,48(r16)
   42978:	28000626 	beq	r5,zero,42994 <__swsetup_r+0x15c>
   4297c:	80c01004 	addi	r3,r16,64
   42980:	28c00326 	beq	r5,r3,42990 <__swsetup_r+0x158>
   42984:	8809883a 	mov	r4,r17
   42988:	0042fec0 	call	42fec <_free_r>
   4298c:	8080030b 	ldhu	r2,12(r16)
   42990:	80000c15 	stw	zero,48(r16)
   42994:	80c00417 	ldw	r3,16(r16)
   42998:	013ff6c4 	movi	r4,-37
   4299c:	2084703a 	and	r2,r4,r2
   429a0:	80000115 	stw	zero,4(r16)
   429a4:	80c00015 	stw	r3,0(r16)
   429a8:	003fd206 	br	428f4 <_gp+0xffff193c>

000429ac <_fflush_r>:
   429ac:	defffb04 	addi	sp,sp,-20
   429b0:	dcc00315 	stw	r19,12(sp)
   429b4:	dc400115 	stw	r17,4(sp)
   429b8:	dfc00415 	stw	ra,16(sp)
   429bc:	dc800215 	stw	r18,8(sp)
   429c0:	dc000015 	stw	r16,0(sp)
   429c4:	2027883a 	mov	r19,r4
   429c8:	2823883a 	mov	r17,r5
   429cc:	20000226 	beq	r4,zero,429d8 <_fflush_r+0x2c>
   429d0:	20800e17 	ldw	r2,56(r4)
   429d4:	10005726 	beq	r2,zero,42b34 <_fflush_r+0x188>
   429d8:	8880030b 	ldhu	r2,12(r17)
   429dc:	10c0020c 	andi	r3,r2,8
   429e0:	18ffffcc 	andi	r3,r3,65535
   429e4:	18e0001c 	xori	r3,r3,32768
   429e8:	18e00004 	addi	r3,r3,-32768
   429ec:	1800311e 	bne	r3,zero,42ab4 <_fflush_r+0x108>
   429f0:	89000117 	ldw	r4,4(r17)
   429f4:	10c20014 	ori	r3,r2,2048
   429f8:	88c0030d 	sth	r3,12(r17)
   429fc:	180b883a 	mov	r5,r3
   42a00:	0100520e 	bge	zero,r4,42b4c <_fflush_r+0x1a0>
   42a04:	88c00a17 	ldw	r3,40(r17)
   42a08:	18002226 	beq	r3,zero,42a94 <_fflush_r+0xe8>
   42a0c:	1084000c 	andi	r2,r2,4096
   42a10:	10bfffcc 	andi	r2,r2,65535
   42a14:	10a0001c 	xori	r2,r2,32768
   42a18:	10a00004 	addi	r2,r2,-32768
   42a1c:	10004e26 	beq	r2,zero,42b58 <_fflush_r+0x1ac>
   42a20:	8c001417 	ldw	r16,80(r17)
   42a24:	2940010c 	andi	r5,r5,4
   42a28:	297fffcc 	andi	r5,r5,65535
   42a2c:	2960001c 	xori	r5,r5,32768
   42a30:	29600004 	addi	r5,r5,-32768
   42a34:	28000626 	beq	r5,zero,42a50 <_fflush_r+0xa4>
   42a38:	89000117 	ldw	r4,4(r17)
   42a3c:	88800c17 	ldw	r2,48(r17)
   42a40:	8121c83a 	sub	r16,r16,r4
   42a44:	10000226 	beq	r2,zero,42a50 <_fflush_r+0xa4>
   42a48:	88800f17 	ldw	r2,60(r17)
   42a4c:	80a1c83a 	sub	r16,r16,r2
   42a50:	89400717 	ldw	r5,28(r17)
   42a54:	9809883a 	mov	r4,r19
   42a58:	800d883a 	mov	r6,r16
   42a5c:	000f883a 	mov	r7,zero
   42a60:	183ee83a 	callr	r3
   42a64:	8080281e 	bne	r16,r2,42b08 <_fflush_r+0x15c>
   42a68:	8880030b 	ldhu	r2,12(r17)
   42a6c:	88c00417 	ldw	r3,16(r17)
   42a70:	88000115 	stw	zero,4(r17)
   42a74:	113dffcc 	andi	r4,r2,63487
   42a78:	1084000c 	andi	r2,r2,4096
   42a7c:	10bfffcc 	andi	r2,r2,65535
   42a80:	10a0001c 	xori	r2,r2,32768
   42a84:	8900030d 	sth	r4,12(r17)
   42a88:	88c00015 	stw	r3,0(r17)
   42a8c:	10a00004 	addi	r2,r2,-32768
   42a90:	10002c1e 	bne	r2,zero,42b44 <_fflush_r+0x198>
   42a94:	0005883a 	mov	r2,zero
   42a98:	dfc00417 	ldw	ra,16(sp)
   42a9c:	dcc00317 	ldw	r19,12(sp)
   42aa0:	dc800217 	ldw	r18,8(sp)
   42aa4:	dc400117 	ldw	r17,4(sp)
   42aa8:	dc000017 	ldw	r16,0(sp)
   42aac:	dec00504 	addi	sp,sp,20
   42ab0:	f800283a 	ret
   42ab4:	8c800417 	ldw	r18,16(r17)
   42ab8:	903ff626 	beq	r18,zero,42a94 <_gp+0xffff1adc>
   42abc:	8c000017 	ldw	r16,0(r17)
   42ac0:	108000cc 	andi	r2,r2,3
   42ac4:	8c800015 	stw	r18,0(r17)
   42ac8:	84a1c83a 	sub	r16,r16,r18
   42acc:	10001b1e 	bne	r2,zero,42b3c <_fflush_r+0x190>
   42ad0:	88800517 	ldw	r2,20(r17)
   42ad4:	88800215 	stw	r2,8(r17)
   42ad8:	04000316 	blt	zero,r16,42ae8 <_fflush_r+0x13c>
   42adc:	003fed06 	br	42a94 <_gp+0xffff1adc>
   42ae0:	90a5883a 	add	r18,r18,r2
   42ae4:	043feb0e 	bge	zero,r16,42a94 <_gp+0xffff1adc>
   42ae8:	88800917 	ldw	r2,36(r17)
   42aec:	89400717 	ldw	r5,28(r17)
   42af0:	800f883a 	mov	r7,r16
   42af4:	900d883a 	mov	r6,r18
   42af8:	9809883a 	mov	r4,r19
   42afc:	103ee83a 	callr	r2
   42b00:	80a1c83a 	sub	r16,r16,r2
   42b04:	00bff616 	blt	zero,r2,42ae0 <_gp+0xffff1b28>
   42b08:	88c0030b 	ldhu	r3,12(r17)
   42b0c:	00bfffc4 	movi	r2,-1
   42b10:	18c01014 	ori	r3,r3,64
   42b14:	88c0030d 	sth	r3,12(r17)
   42b18:	dfc00417 	ldw	ra,16(sp)
   42b1c:	dcc00317 	ldw	r19,12(sp)
   42b20:	dc800217 	ldw	r18,8(sp)
   42b24:	dc400117 	ldw	r17,4(sp)
   42b28:	dc000017 	ldw	r16,0(sp)
   42b2c:	dec00504 	addi	sp,sp,20
   42b30:	f800283a 	ret
   42b34:	0042c680 	call	42c68 <__sinit>
   42b38:	003fa706 	br	429d8 <_gp+0xffff1a20>
   42b3c:	0005883a 	mov	r2,zero
   42b40:	003fe406 	br	42ad4 <_gp+0xffff1b1c>
   42b44:	8c001415 	stw	r16,80(r17)
   42b48:	003fd206 	br	42a94 <_gp+0xffff1adc>
   42b4c:	88c00f17 	ldw	r3,60(r17)
   42b50:	00ffac16 	blt	zero,r3,42a04 <_gp+0xffff1a4c>
   42b54:	003fcf06 	br	42a94 <_gp+0xffff1adc>
   42b58:	89400717 	ldw	r5,28(r17)
   42b5c:	9809883a 	mov	r4,r19
   42b60:	000d883a 	mov	r6,zero
   42b64:	01c00044 	movi	r7,1
   42b68:	183ee83a 	callr	r3
   42b6c:	1021883a 	mov	r16,r2
   42b70:	00bfffc4 	movi	r2,-1
   42b74:	80800326 	beq	r16,r2,42b84 <_fflush_r+0x1d8>
   42b78:	8940030b 	ldhu	r5,12(r17)
   42b7c:	88c00a17 	ldw	r3,40(r17)
   42b80:	003fa806 	br	42a24 <_gp+0xffff1a6c>
   42b84:	98c00017 	ldw	r3,0(r19)
   42b88:	00800744 	movi	r2,29
   42b8c:	18bfde1e 	bne	r3,r2,42b08 <_gp+0xffff1b50>
   42b90:	003fc006 	br	42a94 <_gp+0xffff1adc>

00042b94 <fflush>:
   42b94:	200b883a 	mov	r5,r4
   42b98:	20000426 	beq	r4,zero,42bac <fflush+0x18>
   42b9c:	00800174 	movhi	r2,5
   42ba0:	10a3f404 	addi	r2,r2,-28720
   42ba4:	11000017 	ldw	r4,0(r2)
   42ba8:	00429ac1 	jmpi	429ac <_fflush_r>
   42bac:	00800174 	movhi	r2,5
   42bb0:	10a3f304 	addi	r2,r2,-28724
   42bb4:	11000017 	ldw	r4,0(r2)
   42bb8:	01400134 	movhi	r5,4
   42bbc:	294a6b04 	addi	r5,r5,10668
   42bc0:	00433641 	jmpi	43364 <_fwalk_reent>

00042bc4 <__fp_lock>:
   42bc4:	0005883a 	mov	r2,zero
   42bc8:	f800283a 	ret

00042bcc <__fp_unlock>:
   42bcc:	0005883a 	mov	r2,zero
   42bd0:	f800283a 	ret

00042bd4 <_cleanup_r>:
   42bd4:	01400134 	movhi	r5,4
   42bd8:	29503e04 	addi	r5,r5,16632
   42bdc:	00432bc1 	jmpi	432bc <_fwalk>

00042be0 <__sfmoreglue>:
   42be0:	defffc04 	addi	sp,sp,-16
   42be4:	dc800215 	stw	r18,8(sp)
   42be8:	2825883a 	mov	r18,r5
   42bec:	dc000015 	stw	r16,0(sp)
   42bf0:	01401704 	movi	r5,92
   42bf4:	2021883a 	mov	r16,r4
   42bf8:	9009883a 	mov	r4,r18
   42bfc:	dfc00315 	stw	ra,12(sp)
   42c00:	dc400115 	stw	r17,4(sp)
   42c04:	0041ce40 	call	41ce4 <__mulsi3>
   42c08:	8009883a 	mov	r4,r16
   42c0c:	11400304 	addi	r5,r2,12
   42c10:	1023883a 	mov	r17,r2
   42c14:	00435c40 	call	435c4 <_malloc_r>
   42c18:	1021883a 	mov	r16,r2
   42c1c:	10000726 	beq	r2,zero,42c3c <__sfmoreglue+0x5c>
   42c20:	11000304 	addi	r4,r2,12
   42c24:	10000015 	stw	zero,0(r2)
   42c28:	14800115 	stw	r18,4(r2)
   42c2c:	11000215 	stw	r4,8(r2)
   42c30:	000b883a 	mov	r5,zero
   42c34:	880d883a 	mov	r6,r17
   42c38:	004235c0 	call	4235c <memset>
   42c3c:	8005883a 	mov	r2,r16
   42c40:	dfc00317 	ldw	ra,12(sp)
   42c44:	dc800217 	ldw	r18,8(sp)
   42c48:	dc400117 	ldw	r17,4(sp)
   42c4c:	dc000017 	ldw	r16,0(sp)
   42c50:	dec00404 	addi	sp,sp,16
   42c54:	f800283a 	ret

00042c58 <_cleanup>:
   42c58:	00800174 	movhi	r2,5
   42c5c:	10a3f304 	addi	r2,r2,-28724
   42c60:	11000017 	ldw	r4,0(r2)
   42c64:	0042bd41 	jmpi	42bd4 <_cleanup_r>

00042c68 <__sinit>:
   42c68:	20800e17 	ldw	r2,56(r4)
   42c6c:	1000401e 	bne	r2,zero,42d70 <__sinit+0x108>
   42c70:	21400117 	ldw	r5,4(r4)
   42c74:	01800134 	movhi	r6,4
   42c78:	318af504 	addi	r6,r6,11220
   42c7c:	20c00217 	ldw	r3,8(r4)
   42c80:	21800f15 	stw	r6,60(r4)
   42c84:	2080bb04 	addi	r2,r4,748
   42c88:	02400044 	movi	r9,1
   42c8c:	018000c4 	movi	r6,3
   42c90:	2180b915 	stw	r6,740(r4)
   42c94:	2080ba15 	stw	r2,744(r4)
   42c98:	22400e15 	stw	r9,56(r4)
   42c9c:	20800317 	ldw	r2,12(r4)
   42ca0:	2000b815 	stw	zero,736(r4)
   42ca4:	02000134 	movhi	r8,4
   42ca8:	420f6b04 	addi	r8,r8,15788
   42cac:	01c00134 	movhi	r7,4
   42cb0:	39cf8004 	addi	r7,r7,15872
   42cb4:	01800134 	movhi	r6,4
   42cb8:	318fa204 	addi	r6,r6,16008
   42cbc:	01000134 	movhi	r4,4
   42cc0:	210fb904 	addi	r4,r4,16100
   42cc4:	02800104 	movi	r10,4
   42cc8:	28000015 	stw	zero,0(r5)
   42ccc:	28000115 	stw	zero,4(r5)
   42cd0:	28000215 	stw	zero,8(r5)
   42cd4:	2a80030d 	sth	r10,12(r5)
   42cd8:	2800038d 	sth	zero,14(r5)
   42cdc:	28000415 	stw	zero,16(r5)
   42ce0:	28000515 	stw	zero,20(r5)
   42ce4:	28000615 	stw	zero,24(r5)
   42ce8:	29400715 	stw	r5,28(r5)
   42cec:	2a000815 	stw	r8,32(r5)
   42cf0:	29c00915 	stw	r7,36(r5)
   42cf4:	29800a15 	stw	r6,40(r5)
   42cf8:	29000b15 	stw	r4,44(r5)
   42cfc:	01400284 	movi	r5,10
   42d00:	18000015 	stw	zero,0(r3)
   42d04:	18000115 	stw	zero,4(r3)
   42d08:	18000215 	stw	zero,8(r3)
   42d0c:	1940030d 	sth	r5,12(r3)
   42d10:	1a40038d 	sth	r9,14(r3)
   42d14:	18000415 	stw	zero,16(r3)
   42d18:	18000515 	stw	zero,20(r3)
   42d1c:	18000615 	stw	zero,24(r3)
   42d20:	18c00715 	stw	r3,28(r3)
   42d24:	1a000815 	stw	r8,32(r3)
   42d28:	19c00915 	stw	r7,36(r3)
   42d2c:	19800a15 	stw	r6,40(r3)
   42d30:	19000b15 	stw	r4,44(r3)
   42d34:	00c00484 	movi	r3,18
   42d38:	10c0030d 	sth	r3,12(r2)
   42d3c:	00c00084 	movi	r3,2
   42d40:	10000015 	stw	zero,0(r2)
   42d44:	10000115 	stw	zero,4(r2)
   42d48:	10000215 	stw	zero,8(r2)
   42d4c:	10c0038d 	sth	r3,14(r2)
   42d50:	10000415 	stw	zero,16(r2)
   42d54:	10000515 	stw	zero,20(r2)
   42d58:	10000615 	stw	zero,24(r2)
   42d5c:	10800715 	stw	r2,28(r2)
   42d60:	12000815 	stw	r8,32(r2)
   42d64:	11c00915 	stw	r7,36(r2)
   42d68:	11800a15 	stw	r6,40(r2)
   42d6c:	11000b15 	stw	r4,44(r2)
   42d70:	f800283a 	ret

00042d74 <__sfp>:
   42d74:	defffc04 	addi	sp,sp,-16
   42d78:	00800174 	movhi	r2,5
   42d7c:	10a3f304 	addi	r2,r2,-28724
   42d80:	dc400115 	stw	r17,4(sp)
   42d84:	14400017 	ldw	r17,0(r2)
   42d88:	dc800215 	stw	r18,8(sp)
   42d8c:	dfc00315 	stw	ra,12(sp)
   42d90:	88800e17 	ldw	r2,56(r17)
   42d94:	dc000015 	stw	r16,0(sp)
   42d98:	2025883a 	mov	r18,r4
   42d9c:	10002826 	beq	r2,zero,42e40 <__sfp+0xcc>
   42da0:	8c40b804 	addi	r17,r17,736
   42da4:	043fffc4 	movi	r16,-1
   42da8:	89400117 	ldw	r5,4(r17)
   42dac:	88800217 	ldw	r2,8(r17)
   42db0:	297fffc4 	addi	r5,r5,-1
   42db4:	28000a16 	blt	r5,zero,42de0 <__sfp+0x6c>
   42db8:	10c0030f 	ldh	r3,12(r2)
   42dbc:	18000c26 	beq	r3,zero,42df0 <__sfp+0x7c>
   42dc0:	10c01a04 	addi	r3,r2,104
   42dc4:	00000206 	br	42dd0 <__sfp+0x5c>
   42dc8:	19bfe90f 	ldh	r6,-92(r3)
   42dcc:	30000826 	beq	r6,zero,42df0 <__sfp+0x7c>
   42dd0:	297fffc4 	addi	r5,r5,-1
   42dd4:	18bffd04 	addi	r2,r3,-12
   42dd8:	18c01704 	addi	r3,r3,92
   42ddc:	2c3ffa1e 	bne	r5,r16,42dc8 <_gp+0xffff1e10>
   42de0:	88800017 	ldw	r2,0(r17)
   42de4:	10001926 	beq	r2,zero,42e4c <__sfp+0xd8>
   42de8:	1023883a 	mov	r17,r2
   42dec:	003fee06 	br	42da8 <_gp+0xffff1df0>
   42df0:	00ffffc4 	movi	r3,-1
   42df4:	10c0038d 	sth	r3,14(r2)
   42df8:	00c00044 	movi	r3,1
   42dfc:	10c0030d 	sth	r3,12(r2)
   42e00:	10000015 	stw	zero,0(r2)
   42e04:	10000215 	stw	zero,8(r2)
   42e08:	10000115 	stw	zero,4(r2)
   42e0c:	10000415 	stw	zero,16(r2)
   42e10:	10000515 	stw	zero,20(r2)
   42e14:	10000615 	stw	zero,24(r2)
   42e18:	10000c15 	stw	zero,48(r2)
   42e1c:	10000d15 	stw	zero,52(r2)
   42e20:	10001115 	stw	zero,68(r2)
   42e24:	10001215 	stw	zero,72(r2)
   42e28:	dfc00317 	ldw	ra,12(sp)
   42e2c:	dc800217 	ldw	r18,8(sp)
   42e30:	dc400117 	ldw	r17,4(sp)
   42e34:	dc000017 	ldw	r16,0(sp)
   42e38:	dec00404 	addi	sp,sp,16
   42e3c:	f800283a 	ret
   42e40:	8809883a 	mov	r4,r17
   42e44:	0042c680 	call	42c68 <__sinit>
   42e48:	003fd506 	br	42da0 <_gp+0xffff1de8>
   42e4c:	9009883a 	mov	r4,r18
   42e50:	01400104 	movi	r5,4
   42e54:	0042be00 	call	42be0 <__sfmoreglue>
   42e58:	88800015 	stw	r2,0(r17)
   42e5c:	103fe21e 	bne	r2,zero,42de8 <_gp+0xffff1e30>
   42e60:	00800304 	movi	r2,12
   42e64:	90800015 	stw	r2,0(r18)
   42e68:	0005883a 	mov	r2,zero
   42e6c:	003fee06 	br	42e28 <_gp+0xffff1e70>

00042e70 <__sfp_lock_acquire>:
   42e70:	f800283a 	ret

00042e74 <__sfp_lock_release>:
   42e74:	f800283a 	ret

00042e78 <__sinit_lock_acquire>:
   42e78:	f800283a 	ret

00042e7c <__sinit_lock_release>:
   42e7c:	f800283a 	ret

00042e80 <__fp_lock_all>:
   42e80:	00800174 	movhi	r2,5
   42e84:	10a3f404 	addi	r2,r2,-28720
   42e88:	11000017 	ldw	r4,0(r2)
   42e8c:	01400134 	movhi	r5,4
   42e90:	294af104 	addi	r5,r5,11204
   42e94:	00432bc1 	jmpi	432bc <_fwalk>

00042e98 <__fp_unlock_all>:
   42e98:	00800174 	movhi	r2,5
   42e9c:	10a3f404 	addi	r2,r2,-28720
   42ea0:	11000017 	ldw	r4,0(r2)
   42ea4:	01400134 	movhi	r5,4
   42ea8:	294af304 	addi	r5,r5,11212
   42eac:	00432bc1 	jmpi	432bc <_fwalk>

00042eb0 <_malloc_trim_r>:
   42eb0:	defffb04 	addi	sp,sp,-20
   42eb4:	dcc00315 	stw	r19,12(sp)
   42eb8:	dc800215 	stw	r18,8(sp)
   42ebc:	dc400115 	stw	r17,4(sp)
   42ec0:	dc000015 	stw	r16,0(sp)
   42ec4:	2827883a 	mov	r19,r5
   42ec8:	dfc00415 	stw	ra,16(sp)
   42ecc:	04400134 	movhi	r17,4
   42ed0:	8c5e3904 	addi	r17,r17,30948
   42ed4:	2021883a 	mov	r16,r4
   42ed8:	0044a400 	call	44a40 <__malloc_lock>
   42edc:	88800217 	ldw	r2,8(r17)
   42ee0:	14800117 	ldw	r18,4(r2)
   42ee4:	00bfff04 	movi	r2,-4
   42ee8:	90a4703a 	and	r18,r18,r2
   42eec:	9083fbc4 	addi	r2,r18,4079
   42ef0:	14e7c83a 	sub	r19,r2,r19
   42ef4:	9826d33a 	srli	r19,r19,12
   42ef8:	0083ffc4 	movi	r2,4095
   42efc:	9cffffc4 	addi	r19,r19,-1
   42f00:	9826933a 	slli	r19,r19,12
   42f04:	14c0060e 	bge	r2,r19,42f20 <_malloc_trim_r+0x70>
   42f08:	8009883a 	mov	r4,r16
   42f0c:	000b883a 	mov	r5,zero
   42f10:	0043d480 	call	43d48 <_sbrk_r>
   42f14:	88c00217 	ldw	r3,8(r17)
   42f18:	1c87883a 	add	r3,r3,r18
   42f1c:	10c00a26 	beq	r2,r3,42f48 <_malloc_trim_r+0x98>
   42f20:	8009883a 	mov	r4,r16
   42f24:	0044a600 	call	44a60 <__malloc_unlock>
   42f28:	0005883a 	mov	r2,zero
   42f2c:	dfc00417 	ldw	ra,16(sp)
   42f30:	dcc00317 	ldw	r19,12(sp)
   42f34:	dc800217 	ldw	r18,8(sp)
   42f38:	dc400117 	ldw	r17,4(sp)
   42f3c:	dc000017 	ldw	r16,0(sp)
   42f40:	dec00504 	addi	sp,sp,20
   42f44:	f800283a 	ret
   42f48:	8009883a 	mov	r4,r16
   42f4c:	04cbc83a 	sub	r5,zero,r19
   42f50:	0043d480 	call	43d48 <_sbrk_r>
   42f54:	00ffffc4 	movi	r3,-1
   42f58:	10c01326 	beq	r2,r3,42fa8 <_malloc_trim_r+0xf8>
   42f5c:	00800174 	movhi	r2,5
   42f60:	10a40f04 	addi	r2,r2,-28612
   42f64:	11000017 	ldw	r4,0(r2)
   42f68:	88c00217 	ldw	r3,8(r17)
   42f6c:	94e5c83a 	sub	r18,r18,r19
   42f70:	94800054 	ori	r18,r18,1
   42f74:	24e7c83a 	sub	r19,r4,r19
   42f78:	1c800115 	stw	r18,4(r3)
   42f7c:	8009883a 	mov	r4,r16
   42f80:	14c00015 	stw	r19,0(r2)
   42f84:	0044a600 	call	44a60 <__malloc_unlock>
   42f88:	00800044 	movi	r2,1
   42f8c:	dfc00417 	ldw	ra,16(sp)
   42f90:	dcc00317 	ldw	r19,12(sp)
   42f94:	dc800217 	ldw	r18,8(sp)
   42f98:	dc400117 	ldw	r17,4(sp)
   42f9c:	dc000017 	ldw	r16,0(sp)
   42fa0:	dec00504 	addi	sp,sp,20
   42fa4:	f800283a 	ret
   42fa8:	8009883a 	mov	r4,r16
   42fac:	000b883a 	mov	r5,zero
   42fb0:	0043d480 	call	43d48 <_sbrk_r>
   42fb4:	88c00217 	ldw	r3,8(r17)
   42fb8:	014003c4 	movi	r5,15
   42fbc:	10c9c83a 	sub	r4,r2,r3
   42fc0:	293fd70e 	bge	r5,r4,42f20 <_gp+0xffff1f68>
   42fc4:	01400174 	movhi	r5,5
   42fc8:	2963f504 	addi	r5,r5,-28716
   42fcc:	29400017 	ldw	r5,0(r5)
   42fd0:	21000054 	ori	r4,r4,1
   42fd4:	19000115 	stw	r4,4(r3)
   42fd8:	1145c83a 	sub	r2,r2,r5
   42fdc:	01400174 	movhi	r5,5
   42fe0:	29640f04 	addi	r5,r5,-28612
   42fe4:	28800015 	stw	r2,0(r5)
   42fe8:	003fcd06 	br	42f20 <_gp+0xffff1f68>

00042fec <_free_r>:
   42fec:	defffd04 	addi	sp,sp,-12
   42ff0:	dc400115 	stw	r17,4(sp)
   42ff4:	dc000015 	stw	r16,0(sp)
   42ff8:	dfc00215 	stw	ra,8(sp)
   42ffc:	2821883a 	mov	r16,r5
   43000:	2023883a 	mov	r17,r4
   43004:	28004b26 	beq	r5,zero,43134 <_free_r+0x148>
   43008:	0044a400 	call	44a40 <__malloc_lock>
   4300c:	823fff17 	ldw	r8,-4(r16)
   43010:	00bfff84 	movi	r2,-2
   43014:	81bffe04 	addi	r6,r16,-8
   43018:	4084703a 	and	r2,r8,r2
   4301c:	3087883a 	add	r3,r6,r2
   43020:	01400134 	movhi	r5,4
   43024:	295e3904 	addi	r5,r5,30948
   43028:	1a400117 	ldw	r9,4(r3)
   4302c:	29000217 	ldw	r4,8(r5)
   43030:	01ffff04 	movi	r7,-4
   43034:	49ce703a 	and	r7,r9,r7
   43038:	20c06526 	beq	r4,r3,431d0 <_free_r+0x1e4>
   4303c:	19c00115 	stw	r7,4(r3)
   43040:	4200004c 	andi	r8,r8,1
   43044:	40003026 	beq	r8,zero,43108 <_free_r+0x11c>
   43048:	0009883a 	mov	r4,zero
   4304c:	19d1883a 	add	r8,r3,r7
   43050:	42000117 	ldw	r8,4(r8)
   43054:	4200004c 	andi	r8,r8,1
   43058:	4000061e 	bne	r8,zero,43074 <_free_r+0x88>
   4305c:	11c5883a 	add	r2,r2,r7
   43060:	19c00217 	ldw	r7,8(r3)
   43064:	20004e26 	beq	r4,zero,431a0 <_free_r+0x1b4>
   43068:	18c00317 	ldw	r3,12(r3)
   4306c:	38c00315 	stw	r3,12(r7)
   43070:	19c00215 	stw	r7,8(r3)
   43074:	11c00054 	ori	r7,r2,1
   43078:	3087883a 	add	r3,r6,r2
   4307c:	31c00115 	stw	r7,4(r6)
   43080:	18800015 	stw	r2,0(r3)
   43084:	20001a1e 	bne	r4,zero,430f0 <_free_r+0x104>
   43088:	00c07fc4 	movi	r3,511
   4308c:	18802e2e 	bgeu	r3,r2,43148 <_free_r+0x15c>
   43090:	1006d27a 	srli	r3,r2,9
   43094:	01000104 	movi	r4,4
   43098:	20c06636 	bltu	r4,r3,43234 <_free_r+0x248>
   4309c:	1008d1ba 	srli	r4,r2,6
   430a0:	21000e04 	addi	r4,r4,56
   430a4:	210f883a 	add	r7,r4,r4
   430a8:	39cf883a 	add	r7,r7,r7
   430ac:	39cf883a 	add	r7,r7,r7
   430b0:	29cf883a 	add	r7,r5,r7
   430b4:	38c00217 	ldw	r3,8(r7)
   430b8:	01400134 	movhi	r5,4
   430bc:	295e3904 	addi	r5,r5,30948
   430c0:	19c06126 	beq	r3,r7,43248 <_free_r+0x25c>
   430c4:	013fff04 	movi	r4,-4
   430c8:	19400117 	ldw	r5,4(r3)
   430cc:	290a703a 	and	r5,r5,r4
   430d0:	1140022e 	bgeu	r2,r5,430dc <_free_r+0xf0>
   430d4:	18c00217 	ldw	r3,8(r3)
   430d8:	38fffb1e 	bne	r7,r3,430c8 <_gp+0xffff2110>
   430dc:	18800317 	ldw	r2,12(r3)
   430e0:	30800315 	stw	r2,12(r6)
   430e4:	30c00215 	stw	r3,8(r6)
   430e8:	11800215 	stw	r6,8(r2)
   430ec:	19800315 	stw	r6,12(r3)
   430f0:	8809883a 	mov	r4,r17
   430f4:	dfc00217 	ldw	ra,8(sp)
   430f8:	dc400117 	ldw	r17,4(sp)
   430fc:	dc000017 	ldw	r16,0(sp)
   43100:	dec00304 	addi	sp,sp,12
   43104:	0044a601 	jmpi	44a60 <__malloc_unlock>
   43108:	813ffe17 	ldw	r4,-8(r16)
   4310c:	2a400204 	addi	r9,r5,8
   43110:	310dc83a 	sub	r6,r6,r4
   43114:	32000217 	ldw	r8,8(r6)
   43118:	1105883a 	add	r2,r2,r4
   4311c:	42404326 	beq	r8,r9,4322c <_free_r+0x240>
   43120:	32400317 	ldw	r9,12(r6)
   43124:	0009883a 	mov	r4,zero
   43128:	42400315 	stw	r9,12(r8)
   4312c:	4a000215 	stw	r8,8(r9)
   43130:	003fc606 	br	4304c <_gp+0xffff2094>
   43134:	dfc00217 	ldw	ra,8(sp)
   43138:	dc400117 	ldw	r17,4(sp)
   4313c:	dc000017 	ldw	r16,0(sp)
   43140:	dec00304 	addi	sp,sp,12
   43144:	f800283a 	ret
   43148:	1004d0fa 	srli	r2,r2,3
   4314c:	02000044 	movi	r8,1
   43150:	29c00117 	ldw	r7,4(r5)
   43154:	1087883a 	add	r3,r2,r2
   43158:	18c7883a 	add	r3,r3,r3
   4315c:	1005d0ba 	srai	r2,r2,2
   43160:	18c7883a 	add	r3,r3,r3
   43164:	28c7883a 	add	r3,r5,r3
   43168:	19000217 	ldw	r4,8(r3)
   4316c:	4084983a 	sll	r2,r8,r2
   43170:	30c00315 	stw	r3,12(r6)
   43174:	31000215 	stw	r4,8(r6)
   43178:	11c4b03a 	or	r2,r2,r7
   4317c:	21800315 	stw	r6,12(r4)
   43180:	8809883a 	mov	r4,r17
   43184:	28800115 	stw	r2,4(r5)
   43188:	19800215 	stw	r6,8(r3)
   4318c:	dfc00217 	ldw	ra,8(sp)
   43190:	dc400117 	ldw	r17,4(sp)
   43194:	dc000017 	ldw	r16,0(sp)
   43198:	dec00304 	addi	sp,sp,12
   4319c:	0044a601 	jmpi	44a60 <__malloc_unlock>
   431a0:	02000134 	movhi	r8,4
   431a4:	421e3b04 	addi	r8,r8,30956
   431a8:	3a3faf1e 	bne	r7,r8,43068 <_gp+0xffff20b0>
   431ac:	29800515 	stw	r6,20(r5)
   431b0:	29800415 	stw	r6,16(r5)
   431b4:	11000054 	ori	r4,r2,1
   431b8:	3087883a 	add	r3,r6,r2
   431bc:	31c00315 	stw	r7,12(r6)
   431c0:	31c00215 	stw	r7,8(r6)
   431c4:	31000115 	stw	r4,4(r6)
   431c8:	18800015 	stw	r2,0(r3)
   431cc:	003fc806 	br	430f0 <_gp+0xffff2138>
   431d0:	4200004c 	andi	r8,r8,1
   431d4:	3885883a 	add	r2,r7,r2
   431d8:	4000071e 	bne	r8,zero,431f8 <_free_r+0x20c>
   431dc:	81fffe17 	ldw	r7,-8(r16)
   431e0:	31cdc83a 	sub	r6,r6,r7
   431e4:	30c00317 	ldw	r3,12(r6)
   431e8:	31000217 	ldw	r4,8(r6)
   431ec:	11c5883a 	add	r2,r2,r7
   431f0:	20c00315 	stw	r3,12(r4)
   431f4:	19000215 	stw	r4,8(r3)
   431f8:	00c00174 	movhi	r3,5
   431fc:	18e3f604 	addi	r3,r3,-28712
   43200:	18c00017 	ldw	r3,0(r3)
   43204:	11000054 	ori	r4,r2,1
   43208:	31000115 	stw	r4,4(r6)
   4320c:	29800215 	stw	r6,8(r5)
   43210:	10ffb736 	bltu	r2,r3,430f0 <_gp+0xffff2138>
   43214:	00800174 	movhi	r2,5
   43218:	10a40704 	addi	r2,r2,-28644
   4321c:	11400017 	ldw	r5,0(r2)
   43220:	8809883a 	mov	r4,r17
   43224:	0042eb00 	call	42eb0 <_malloc_trim_r>
   43228:	003fb106 	br	430f0 <_gp+0xffff2138>
   4322c:	01000044 	movi	r4,1
   43230:	003f8606 	br	4304c <_gp+0xffff2094>
   43234:	01000504 	movi	r4,20
   43238:	20c00b36 	bltu	r4,r3,43268 <_free_r+0x27c>
   4323c:	190016c4 	addi	r4,r3,91
   43240:	210f883a 	add	r7,r4,r4
   43244:	003f9806 	br	430a8 <_gp+0xffff20f0>
   43248:	2009d0ba 	srai	r4,r4,2
   4324c:	00800044 	movi	r2,1
   43250:	29c00117 	ldw	r7,4(r5)
   43254:	1108983a 	sll	r4,r2,r4
   43258:	1805883a 	mov	r2,r3
   4325c:	21c8b03a 	or	r4,r4,r7
   43260:	29000115 	stw	r4,4(r5)
   43264:	003f9e06 	br	430e0 <_gp+0xffff2128>
   43268:	01001504 	movi	r4,84
   4326c:	20c00436 	bltu	r4,r3,43280 <_free_r+0x294>
   43270:	1008d33a 	srli	r4,r2,12
   43274:	21001b84 	addi	r4,r4,110
   43278:	210f883a 	add	r7,r4,r4
   4327c:	003f8a06 	br	430a8 <_gp+0xffff20f0>
   43280:	01005504 	movi	r4,340
   43284:	20c00436 	bltu	r4,r3,43298 <_free_r+0x2ac>
   43288:	1008d3fa 	srli	r4,r2,15
   4328c:	21001dc4 	addi	r4,r4,119
   43290:	210f883a 	add	r7,r4,r4
   43294:	003f8406 	br	430a8 <_gp+0xffff20f0>
   43298:	01015504 	movi	r4,1364
   4329c:	20c00436 	bltu	r4,r3,432b0 <_free_r+0x2c4>
   432a0:	1008d4ba 	srli	r4,r2,18
   432a4:	21001f04 	addi	r4,r4,124
   432a8:	210f883a 	add	r7,r4,r4
   432ac:	003f7e06 	br	430a8 <_gp+0xffff20f0>
   432b0:	01c03f04 	movi	r7,252
   432b4:	01001f84 	movi	r4,126
   432b8:	003f7b06 	br	430a8 <_gp+0xffff20f0>

000432bc <_fwalk>:
   432bc:	defff904 	addi	sp,sp,-28
   432c0:	dcc00315 	stw	r19,12(sp)
   432c4:	24c0b804 	addi	r19,r4,736
   432c8:	dd400515 	stw	r21,20(sp)
   432cc:	dd000415 	stw	r20,16(sp)
   432d0:	dfc00615 	stw	ra,24(sp)
   432d4:	dc800215 	stw	r18,8(sp)
   432d8:	dc400115 	stw	r17,4(sp)
   432dc:	dc000015 	stw	r16,0(sp)
   432e0:	282b883a 	mov	r21,r5
   432e4:	0029883a 	mov	r20,zero
   432e8:	0042e700 	call	42e70 <__sfp_lock_acquire>
   432ec:	98001226 	beq	r19,zero,43338 <_fwalk+0x7c>
   432f0:	04bfffc4 	movi	r18,-1
   432f4:	9c400117 	ldw	r17,4(r19)
   432f8:	9c000217 	ldw	r16,8(r19)
   432fc:	8c7fffc4 	addi	r17,r17,-1
   43300:	88000b16 	blt	r17,zero,43330 <_fwalk+0x74>
   43304:	84000304 	addi	r16,r16,12
   43308:	80c0000f 	ldh	r3,0(r16)
   4330c:	8c7fffc4 	addi	r17,r17,-1
   43310:	813ffd04 	addi	r4,r16,-12
   43314:	18000426 	beq	r3,zero,43328 <_fwalk+0x6c>
   43318:	80c0008f 	ldh	r3,2(r16)
   4331c:	1c800226 	beq	r3,r18,43328 <_fwalk+0x6c>
   43320:	a83ee83a 	callr	r21
   43324:	a0a8b03a 	or	r20,r20,r2
   43328:	84001704 	addi	r16,r16,92
   4332c:	8cbff61e 	bne	r17,r18,43308 <_gp+0xffff2350>
   43330:	9cc00017 	ldw	r19,0(r19)
   43334:	983fef1e 	bne	r19,zero,432f4 <_gp+0xffff233c>
   43338:	0042e740 	call	42e74 <__sfp_lock_release>
   4333c:	a005883a 	mov	r2,r20
   43340:	dfc00617 	ldw	ra,24(sp)
   43344:	dd400517 	ldw	r21,20(sp)
   43348:	dd000417 	ldw	r20,16(sp)
   4334c:	dcc00317 	ldw	r19,12(sp)
   43350:	dc800217 	ldw	r18,8(sp)
   43354:	dc400117 	ldw	r17,4(sp)
   43358:	dc000017 	ldw	r16,0(sp)
   4335c:	dec00704 	addi	sp,sp,28
   43360:	f800283a 	ret

00043364 <_fwalk_reent>:
   43364:	defff804 	addi	sp,sp,-32
   43368:	dcc00315 	stw	r19,12(sp)
   4336c:	24c0b804 	addi	r19,r4,736
   43370:	dd800615 	stw	r22,24(sp)
   43374:	dd400515 	stw	r21,20(sp)
   43378:	dd000415 	stw	r20,16(sp)
   4337c:	dfc00715 	stw	ra,28(sp)
   43380:	dc800215 	stw	r18,8(sp)
   43384:	dc400115 	stw	r17,4(sp)
   43388:	dc000015 	stw	r16,0(sp)
   4338c:	2029883a 	mov	r20,r4
   43390:	282b883a 	mov	r21,r5
   43394:	002d883a 	mov	r22,zero
   43398:	0042e700 	call	42e70 <__sfp_lock_acquire>
   4339c:	98001326 	beq	r19,zero,433ec <_fwalk_reent+0x88>
   433a0:	04bfffc4 	movi	r18,-1
   433a4:	9c400117 	ldw	r17,4(r19)
   433a8:	9c000217 	ldw	r16,8(r19)
   433ac:	8c7fffc4 	addi	r17,r17,-1
   433b0:	88000c16 	blt	r17,zero,433e4 <_fwalk_reent+0x80>
   433b4:	84000304 	addi	r16,r16,12
   433b8:	80c0000f 	ldh	r3,0(r16)
   433bc:	8c7fffc4 	addi	r17,r17,-1
   433c0:	817ffd04 	addi	r5,r16,-12
   433c4:	18000526 	beq	r3,zero,433dc <_fwalk_reent+0x78>
   433c8:	80c0008f 	ldh	r3,2(r16)
   433cc:	a009883a 	mov	r4,r20
   433d0:	1c800226 	beq	r3,r18,433dc <_fwalk_reent+0x78>
   433d4:	a83ee83a 	callr	r21
   433d8:	b0acb03a 	or	r22,r22,r2
   433dc:	84001704 	addi	r16,r16,92
   433e0:	8cbff51e 	bne	r17,r18,433b8 <_gp+0xffff2400>
   433e4:	9cc00017 	ldw	r19,0(r19)
   433e8:	983fee1e 	bne	r19,zero,433a4 <_gp+0xffff23ec>
   433ec:	0042e740 	call	42e74 <__sfp_lock_release>
   433f0:	b005883a 	mov	r2,r22
   433f4:	dfc00717 	ldw	ra,28(sp)
   433f8:	dd800617 	ldw	r22,24(sp)
   433fc:	dd400517 	ldw	r21,20(sp)
   43400:	dd000417 	ldw	r20,16(sp)
   43404:	dcc00317 	ldw	r19,12(sp)
   43408:	dc800217 	ldw	r18,8(sp)
   4340c:	dc400117 	ldw	r17,4(sp)
   43410:	dc000017 	ldw	r16,0(sp)
   43414:	dec00804 	addi	sp,sp,32
   43418:	f800283a 	ret

0004341c <__smakebuf_r>:
   4341c:	2880030b 	ldhu	r2,12(r5)
   43420:	deffed04 	addi	sp,sp,-76
   43424:	dc401015 	stw	r17,64(sp)
   43428:	10c0008c 	andi	r3,r2,2
   4342c:	18ffffcc 	andi	r3,r3,65535
   43430:	18e0001c 	xori	r3,r3,32768
   43434:	dc000f15 	stw	r16,60(sp)
   43438:	dfc01215 	stw	ra,72(sp)
   4343c:	dc801115 	stw	r18,68(sp)
   43440:	18e00004 	addi	r3,r3,-32768
   43444:	2821883a 	mov	r16,r5
   43448:	2023883a 	mov	r17,r4
   4344c:	1800381e 	bne	r3,zero,43530 <__smakebuf_r+0x114>
   43450:	2940038f 	ldh	r5,14(r5)
   43454:	28002d16 	blt	r5,zero,4350c <__smakebuf_r+0xf0>
   43458:	d80d883a 	mov	r6,sp
   4345c:	004410c0 	call	4410c <_fstat_r>
   43460:	10002916 	blt	r2,zero,43508 <__smakebuf_r+0xec>
   43464:	d8800117 	ldw	r2,4(sp)
   43468:	00e00014 	movui	r3,32768
   4346c:	10bc000c 	andi	r2,r2,61440
   43470:	10c03c26 	beq	r2,r3,43564 <__smakebuf_r+0x148>
   43474:	80c0030b 	ldhu	r3,12(r16)
   43478:	18c20014 	ori	r3,r3,2048
   4347c:	80c0030d 	sth	r3,12(r16)
   43480:	00c80004 	movi	r3,8192
   43484:	10c00c1e 	bne	r2,r3,434b8 <__smakebuf_r+0x9c>
   43488:	8140038f 	ldh	r5,14(r16)
   4348c:	8809883a 	mov	r4,r17
   43490:	00441740 	call	44174 <_isatty_r>
   43494:	10000826 	beq	r2,zero,434b8 <__smakebuf_r+0x9c>
   43498:	80c0030b 	ldhu	r3,12(r16)
   4349c:	808010c4 	addi	r2,r16,67
   434a0:	80800015 	stw	r2,0(r16)
   434a4:	18c00054 	ori	r3,r3,1
   434a8:	80800415 	stw	r2,16(r16)
   434ac:	00800044 	movi	r2,1
   434b0:	80c0030d 	sth	r3,12(r16)
   434b4:	80800515 	stw	r2,20(r16)
   434b8:	04810004 	movi	r18,1024
   434bc:	8809883a 	mov	r4,r17
   434c0:	900b883a 	mov	r5,r18
   434c4:	00435c40 	call	435c4 <_malloc_r>
   434c8:	10003026 	beq	r2,zero,4358c <__smakebuf_r+0x170>
   434cc:	80c0030b 	ldhu	r3,12(r16)
   434d0:	01000134 	movhi	r4,4
   434d4:	210af504 	addi	r4,r4,11220
   434d8:	89000f15 	stw	r4,60(r17)
   434dc:	18c02014 	ori	r3,r3,128
   434e0:	80c0030d 	sth	r3,12(r16)
   434e4:	80800015 	stw	r2,0(r16)
   434e8:	80800415 	stw	r2,16(r16)
   434ec:	84800515 	stw	r18,20(r16)
   434f0:	dfc01217 	ldw	ra,72(sp)
   434f4:	dc801117 	ldw	r18,68(sp)
   434f8:	dc401017 	ldw	r17,64(sp)
   434fc:	dc000f17 	ldw	r16,60(sp)
   43500:	dec01304 	addi	sp,sp,76
   43504:	f800283a 	ret
   43508:	8080030b 	ldhu	r2,12(r16)
   4350c:	10c0200c 	andi	r3,r2,128
   43510:	18ffffcc 	andi	r3,r3,65535
   43514:	18e0001c 	xori	r3,r3,32768
   43518:	18e00004 	addi	r3,r3,-32768
   4351c:	18000f1e 	bne	r3,zero,4355c <__smakebuf_r+0x140>
   43520:	04810004 	movi	r18,1024
   43524:	10820014 	ori	r2,r2,2048
   43528:	8080030d 	sth	r2,12(r16)
   4352c:	003fe306 	br	434bc <_gp+0xffff2504>
   43530:	288010c4 	addi	r2,r5,67
   43534:	28800015 	stw	r2,0(r5)
   43538:	28800415 	stw	r2,16(r5)
   4353c:	00800044 	movi	r2,1
   43540:	28800515 	stw	r2,20(r5)
   43544:	dfc01217 	ldw	ra,72(sp)
   43548:	dc801117 	ldw	r18,68(sp)
   4354c:	dc401017 	ldw	r17,64(sp)
   43550:	dc000f17 	ldw	r16,60(sp)
   43554:	dec01304 	addi	sp,sp,76
   43558:	f800283a 	ret
   4355c:	04801004 	movi	r18,64
   43560:	003ff006 	br	43524 <_gp+0xffff256c>
   43564:	81000a17 	ldw	r4,40(r16)
   43568:	00c00134 	movhi	r3,4
   4356c:	18cfa204 	addi	r3,r3,16008
   43570:	20ffc01e 	bne	r4,r3,43474 <_gp+0xffff24bc>
   43574:	8080030b 	ldhu	r2,12(r16)
   43578:	00c10004 	movi	r3,1024
   4357c:	80c01315 	stw	r3,76(r16)
   43580:	10c4b03a 	or	r2,r2,r3
   43584:	8080030d 	sth	r2,12(r16)
   43588:	003fcb06 	br	434b8 <_gp+0xffff2500>
   4358c:	8080030b 	ldhu	r2,12(r16)
   43590:	10c0800c 	andi	r3,r2,512
   43594:	18ffffcc 	andi	r3,r3,65535
   43598:	18e0001c 	xori	r3,r3,32768
   4359c:	18e00004 	addi	r3,r3,-32768
   435a0:	183fd31e 	bne	r3,zero,434f0 <_gp+0xffff2538>
   435a4:	10800094 	ori	r2,r2,2
   435a8:	80c010c4 	addi	r3,r16,67
   435ac:	8080030d 	sth	r2,12(r16)
   435b0:	00800044 	movi	r2,1
   435b4:	80c00015 	stw	r3,0(r16)
   435b8:	80c00415 	stw	r3,16(r16)
   435bc:	80800515 	stw	r2,20(r16)
   435c0:	003fcb06 	br	434f0 <_gp+0xffff2538>

000435c4 <_malloc_r>:
   435c4:	defff604 	addi	sp,sp,-40
   435c8:	dc800215 	stw	r18,8(sp)
   435cc:	dfc00915 	stw	ra,36(sp)
   435d0:	df000815 	stw	fp,32(sp)
   435d4:	ddc00715 	stw	r23,28(sp)
   435d8:	dd800615 	stw	r22,24(sp)
   435dc:	dd400515 	stw	r21,20(sp)
   435e0:	dd000415 	stw	r20,16(sp)
   435e4:	dcc00315 	stw	r19,12(sp)
   435e8:	dc400115 	stw	r17,4(sp)
   435ec:	dc000015 	stw	r16,0(sp)
   435f0:	288002c4 	addi	r2,r5,11
   435f4:	00c00584 	movi	r3,22
   435f8:	2025883a 	mov	r18,r4
   435fc:	18802b2e 	bgeu	r3,r2,436ac <_malloc_r+0xe8>
   43600:	047ffe04 	movi	r17,-8
   43604:	1462703a 	and	r17,r2,r17
   43608:	88002a16 	blt	r17,zero,436b4 <_malloc_r+0xf0>
   4360c:	89402936 	bltu	r17,r5,436b4 <_malloc_r+0xf0>
   43610:	9009883a 	mov	r4,r18
   43614:	0044a400 	call	44a40 <__malloc_lock>
   43618:	00807dc4 	movi	r2,503
   4361c:	14402936 	bltu	r2,r17,436c4 <_malloc_r+0x100>
   43620:	8808d0fa 	srli	r4,r17,3
   43624:	04c00134 	movhi	r19,4
   43628:	9cde3904 	addi	r19,r19,30948
   4362c:	2105883a 	add	r2,r4,r4
   43630:	1085883a 	add	r2,r2,r2
   43634:	1085883a 	add	r2,r2,r2
   43638:	9885883a 	add	r2,r19,r2
   4363c:	14000317 	ldw	r16,12(r2)
   43640:	80815526 	beq	r16,r2,43b98 <_malloc_r+0x5d4>
   43644:	81000117 	ldw	r4,4(r16)
   43648:	00bfff04 	movi	r2,-4
   4364c:	80c00317 	ldw	r3,12(r16)
   43650:	2084703a 	and	r2,r4,r2
   43654:	8085883a 	add	r2,r16,r2
   43658:	11800117 	ldw	r6,4(r2)
   4365c:	81400217 	ldw	r5,8(r16)
   43660:	9009883a 	mov	r4,r18
   43664:	31800054 	ori	r6,r6,1
   43668:	11800115 	stw	r6,4(r2)
   4366c:	28c00315 	stw	r3,12(r5)
   43670:	19400215 	stw	r5,8(r3)
   43674:	0044a600 	call	44a60 <__malloc_unlock>
   43678:	80800204 	addi	r2,r16,8
   4367c:	dfc00917 	ldw	ra,36(sp)
   43680:	df000817 	ldw	fp,32(sp)
   43684:	ddc00717 	ldw	r23,28(sp)
   43688:	dd800617 	ldw	r22,24(sp)
   4368c:	dd400517 	ldw	r21,20(sp)
   43690:	dd000417 	ldw	r20,16(sp)
   43694:	dcc00317 	ldw	r19,12(sp)
   43698:	dc800217 	ldw	r18,8(sp)
   4369c:	dc400117 	ldw	r17,4(sp)
   436a0:	dc000017 	ldw	r16,0(sp)
   436a4:	dec00a04 	addi	sp,sp,40
   436a8:	f800283a 	ret
   436ac:	04400404 	movi	r17,16
   436b0:	897fd72e 	bgeu	r17,r5,43610 <_gp+0xffff2658>
   436b4:	00800304 	movi	r2,12
   436b8:	90800015 	stw	r2,0(r18)
   436bc:	0005883a 	mov	r2,zero
   436c0:	003fee06 	br	4367c <_gp+0xffff26c4>
   436c4:	8808d27a 	srli	r4,r17,9
   436c8:	20007126 	beq	r4,zero,43890 <_malloc_r+0x2cc>
   436cc:	00800104 	movi	r2,4
   436d0:	1100eb36 	bltu	r2,r4,43a80 <_malloc_r+0x4bc>
   436d4:	8808d1ba 	srli	r4,r17,6
   436d8:	21000e04 	addi	r4,r4,56
   436dc:	210b883a 	add	r5,r4,r4
   436e0:	294b883a 	add	r5,r5,r5
   436e4:	294b883a 	add	r5,r5,r5
   436e8:	04c00134 	movhi	r19,4
   436ec:	9cde3904 	addi	r19,r19,30948
   436f0:	994b883a 	add	r5,r19,r5
   436f4:	2c000317 	ldw	r16,12(r5)
   436f8:	2c000e26 	beq	r5,r16,43734 <_malloc_r+0x170>
   436fc:	80c00117 	ldw	r3,4(r16)
   43700:	01ffff04 	movi	r7,-4
   43704:	018003c4 	movi	r6,15
   43708:	19c6703a 	and	r3,r3,r7
   4370c:	1c45c83a 	sub	r2,r3,r17
   43710:	30800716 	blt	r6,r2,43730 <_malloc_r+0x16c>
   43714:	1000610e 	bge	r2,zero,4389c <_malloc_r+0x2d8>
   43718:	84000317 	ldw	r16,12(r16)
   4371c:	2c000526 	beq	r5,r16,43734 <_malloc_r+0x170>
   43720:	80c00117 	ldw	r3,4(r16)
   43724:	19c6703a 	and	r3,r3,r7
   43728:	1c45c83a 	sub	r2,r3,r17
   4372c:	30bff90e 	bge	r6,r2,43714 <_gp+0xffff275c>
   43730:	213fffc4 	addi	r4,r4,-1
   43734:	21000044 	addi	r4,r4,1
   43738:	9c000417 	ldw	r16,16(r19)
   4373c:	00c00134 	movhi	r3,4
   43740:	18de3904 	addi	r3,r3,30948
   43744:	1a400204 	addi	r9,r3,8
   43748:	8240ff26 	beq	r16,r9,43b48 <_malloc_r+0x584>
   4374c:	81400117 	ldw	r5,4(r16)
   43750:	00bfff04 	movi	r2,-4
   43754:	018003c4 	movi	r6,15
   43758:	2884703a 	and	r2,r5,r2
   4375c:	144bc83a 	sub	r5,r2,r17
   43760:	3140ea16 	blt	r6,r5,43b0c <_malloc_r+0x548>
   43764:	1a400515 	stw	r9,20(r3)
   43768:	1a400415 	stw	r9,16(r3)
   4376c:	2800570e 	bge	r5,zero,438cc <_malloc_r+0x308>
   43770:	01407fc4 	movi	r5,511
   43774:	2880ca36 	bltu	r5,r2,43aa0 <_malloc_r+0x4dc>
   43778:	1004d0fa 	srli	r2,r2,3
   4377c:	02000044 	movi	r8,1
   43780:	19c00117 	ldw	r7,4(r3)
   43784:	108b883a 	add	r5,r2,r2
   43788:	294b883a 	add	r5,r5,r5
   4378c:	1005d0ba 	srai	r2,r2,2
   43790:	294b883a 	add	r5,r5,r5
   43794:	28cb883a 	add	r5,r5,r3
   43798:	29800217 	ldw	r6,8(r5)
   4379c:	4084983a 	sll	r2,r8,r2
   437a0:	81400315 	stw	r5,12(r16)
   437a4:	81800215 	stw	r6,8(r16)
   437a8:	11c4b03a 	or	r2,r2,r7
   437ac:	18800115 	stw	r2,4(r3)
   437b0:	2c000215 	stw	r16,8(r5)
   437b4:	34000315 	stw	r16,12(r6)
   437b8:	200bd0ba 	srai	r5,r4,2
   437bc:	00c00044 	movi	r3,1
   437c0:	194a983a 	sll	r5,r3,r5
   437c4:	11404936 	bltu	r2,r5,438ec <_malloc_r+0x328>
   437c8:	1146703a 	and	r3,r2,r5
   437cc:	18000a1e 	bne	r3,zero,437f8 <_malloc_r+0x234>
   437d0:	00ffff04 	movi	r3,-4
   437d4:	294b883a 	add	r5,r5,r5
   437d8:	20c8703a 	and	r4,r4,r3
   437dc:	1146703a 	and	r3,r2,r5
   437e0:	21000104 	addi	r4,r4,4
   437e4:	1800041e 	bne	r3,zero,437f8 <_malloc_r+0x234>
   437e8:	294b883a 	add	r5,r5,r5
   437ec:	1146703a 	and	r3,r2,r5
   437f0:	21000104 	addi	r4,r4,4
   437f4:	183ffc26 	beq	r3,zero,437e8 <_gp+0xffff2830>
   437f8:	023fff04 	movi	r8,-4
   437fc:	01c003c4 	movi	r7,15
   43800:	2105883a 	add	r2,r4,r4
   43804:	1085883a 	add	r2,r2,r2
   43808:	1085883a 	add	r2,r2,r2
   4380c:	9899883a 	add	r12,r19,r2
   43810:	62800304 	addi	r10,r12,12
   43814:	2017883a 	mov	r11,r4
   43818:	54000017 	ldw	r16,0(r10)
   4381c:	51bffd04 	addi	r6,r10,-12
   43820:	8180041e 	bne	r16,r6,43834 <_malloc_r+0x270>
   43824:	0000ca06 	br	43b50 <_malloc_r+0x58c>
   43828:	10001c0e 	bge	r2,zero,4389c <_malloc_r+0x2d8>
   4382c:	84000317 	ldw	r16,12(r16)
   43830:	8180c726 	beq	r16,r6,43b50 <_malloc_r+0x58c>
   43834:	80c00117 	ldw	r3,4(r16)
   43838:	1a06703a 	and	r3,r3,r8
   4383c:	1c45c83a 	sub	r2,r3,r17
   43840:	38bff90e 	bge	r7,r2,43828 <_gp+0xffff2870>
   43844:	81000317 	ldw	r4,12(r16)
   43848:	81400217 	ldw	r5,8(r16)
   4384c:	8447883a 	add	r3,r16,r17
   43850:	8c400054 	ori	r17,r17,1
   43854:	29000315 	stw	r4,12(r5)
   43858:	21400215 	stw	r5,8(r4)
   4385c:	84400115 	stw	r17,4(r16)
   43860:	1889883a 	add	r4,r3,r2
   43864:	11400054 	ori	r5,r2,1
   43868:	98c00515 	stw	r3,20(r19)
   4386c:	98c00415 	stw	r3,16(r19)
   43870:	20800015 	stw	r2,0(r4)
   43874:	1a400315 	stw	r9,12(r3)
   43878:	1a400215 	stw	r9,8(r3)
   4387c:	19400115 	stw	r5,4(r3)
   43880:	9009883a 	mov	r4,r18
   43884:	0044a600 	call	44a60 <__malloc_unlock>
   43888:	80800204 	addi	r2,r16,8
   4388c:	003f7b06 	br	4367c <_gp+0xffff26c4>
   43890:	8808d0fa 	srli	r4,r17,3
   43894:	210b883a 	add	r5,r4,r4
   43898:	003f9106 	br	436e0 <_gp+0xffff2728>
   4389c:	80c7883a 	add	r3,r16,r3
   438a0:	19400117 	ldw	r5,4(r3)
   438a4:	80800317 	ldw	r2,12(r16)
   438a8:	81000217 	ldw	r4,8(r16)
   438ac:	29400054 	ori	r5,r5,1
   438b0:	19400115 	stw	r5,4(r3)
   438b4:	20800315 	stw	r2,12(r4)
   438b8:	11000215 	stw	r4,8(r2)
   438bc:	9009883a 	mov	r4,r18
   438c0:	0044a600 	call	44a60 <__malloc_unlock>
   438c4:	80800204 	addi	r2,r16,8
   438c8:	003f6c06 	br	4367c <_gp+0xffff26c4>
   438cc:	8085883a 	add	r2,r16,r2
   438d0:	10c00117 	ldw	r3,4(r2)
   438d4:	9009883a 	mov	r4,r18
   438d8:	18c00054 	ori	r3,r3,1
   438dc:	10c00115 	stw	r3,4(r2)
   438e0:	0044a600 	call	44a60 <__malloc_unlock>
   438e4:	80800204 	addi	r2,r16,8
   438e8:	003f6406 	br	4367c <_gp+0xffff26c4>
   438ec:	9c000217 	ldw	r16,8(r19)
   438f0:	00bfff04 	movi	r2,-4
   438f4:	85400117 	ldw	r21,4(r16)
   438f8:	a8aa703a 	and	r21,r21,r2
   438fc:	ac400336 	bltu	r21,r17,4390c <_malloc_r+0x348>
   43900:	ac45c83a 	sub	r2,r21,r17
   43904:	00c003c4 	movi	r3,15
   43908:	18805316 	blt	r3,r2,43a58 <_malloc_r+0x494>
   4390c:	d5e01917 	ldw	r23,-32668(gp)
   43910:	d0e00717 	ldw	r3,-32740(gp)
   43914:	00bfffc4 	movi	r2,-1
   43918:	8579883a 	add	fp,r16,r21
   4391c:	8def883a 	add	r23,r17,r23
   43920:	1880d226 	beq	r3,r2,43c6c <_malloc_r+0x6a8>
   43924:	bdc403c4 	addi	r23,r23,4111
   43928:	00bc0004 	movi	r2,-4096
   4392c:	b8ae703a 	and	r23,r23,r2
   43930:	9009883a 	mov	r4,r18
   43934:	b80b883a 	mov	r5,r23
   43938:	0043d480 	call	43d48 <_sbrk_r>
   4393c:	1029883a 	mov	r20,r2
   43940:	00bfffc4 	movi	r2,-1
   43944:	a080d126 	beq	r20,r2,43c8c <_malloc_r+0x6c8>
   43948:	a7009f36 	bltu	r20,fp,43bc8 <_malloc_r+0x604>
   4394c:	05800174 	movhi	r22,5
   43950:	b5a40f04 	addi	r22,r22,-28612
   43954:	b0800017 	ldw	r2,0(r22)
   43958:	b885883a 	add	r2,r23,r2
   4395c:	b0800015 	stw	r2,0(r22)
   43960:	e500cf26 	beq	fp,r20,43ca0 <_malloc_r+0x6dc>
   43964:	d1200717 	ldw	r4,-32740(gp)
   43968:	00ffffc4 	movi	r3,-1
   4396c:	20c0e026 	beq	r4,r3,43cf0 <_malloc_r+0x72c>
   43970:	a739c83a 	sub	fp,r20,fp
   43974:	1705883a 	add	r2,r2,fp
   43978:	b0800015 	stw	r2,0(r22)
   4397c:	a08001cc 	andi	r2,r20,7
   43980:	1000a526 	beq	r2,zero,43c18 <_malloc_r+0x654>
   43984:	a0a9c83a 	sub	r20,r20,r2
   43988:	00c40204 	movi	r3,4104
   4398c:	a5000204 	addi	r20,r20,8
   43990:	1885c83a 	sub	r2,r3,r2
   43994:	a5c7883a 	add	r3,r20,r23
   43998:	18c3ffcc 	andi	r3,r3,4095
   4399c:	10efc83a 	sub	r23,r2,r3
   439a0:	9009883a 	mov	r4,r18
   439a4:	b80b883a 	mov	r5,r23
   439a8:	0043d480 	call	43d48 <_sbrk_r>
   439ac:	00ffffc4 	movi	r3,-1
   439b0:	10c0cc26 	beq	r2,r3,43ce4 <_malloc_r+0x720>
   439b4:	1505c83a 	sub	r2,r2,r20
   439b8:	b887883a 	add	r3,r23,r2
   439bc:	18c00054 	ori	r3,r3,1
   439c0:	b0800017 	ldw	r2,0(r22)
   439c4:	9d000215 	stw	r20,8(r19)
   439c8:	a0c00115 	stw	r3,4(r20)
   439cc:	b885883a 	add	r2,r23,r2
   439d0:	b0800015 	stw	r2,0(r22)
   439d4:	84c00e26 	beq	r16,r19,43a10 <_malloc_r+0x44c>
   439d8:	00c003c4 	movi	r3,15
   439dc:	1d40902e 	bgeu	r3,r21,43c20 <_malloc_r+0x65c>
   439e0:	ad7ffd04 	addi	r21,r21,-12
   439e4:	013ffe04 	movi	r4,-8
   439e8:	a908703a 	and	r4,r21,r4
   439ec:	810b883a 	add	r5,r16,r4
   439f0:	01800144 	movi	r6,5
   439f4:	29800115 	stw	r6,4(r5)
   439f8:	29800215 	stw	r6,8(r5)
   439fc:	81400117 	ldw	r5,4(r16)
   43a00:	2940004c 	andi	r5,r5,1
   43a04:	214ab03a 	or	r5,r4,r5
   43a08:	81400115 	stw	r5,4(r16)
   43a0c:	1900ae36 	bltu	r3,r4,43cc8 <_malloc_r+0x704>
   43a10:	d0e01817 	ldw	r3,-32672(gp)
   43a14:	1880012e 	bgeu	r3,r2,43a1c <_malloc_r+0x458>
   43a18:	d0a01815 	stw	r2,-32672(gp)
   43a1c:	d0e01717 	ldw	r3,-32676(gp)
   43a20:	9c000217 	ldw	r16,8(r19)
   43a24:	1880012e 	bgeu	r3,r2,43a2c <_malloc_r+0x468>
   43a28:	d0a01715 	stw	r2,-32676(gp)
   43a2c:	80c00117 	ldw	r3,4(r16)
   43a30:	00bfff04 	movi	r2,-4
   43a34:	1886703a 	and	r3,r3,r2
   43a38:	1c45c83a 	sub	r2,r3,r17
   43a3c:	1c400236 	bltu	r3,r17,43a48 <_malloc_r+0x484>
   43a40:	00c003c4 	movi	r3,15
   43a44:	18800416 	blt	r3,r2,43a58 <_malloc_r+0x494>
   43a48:	9009883a 	mov	r4,r18
   43a4c:	0044a600 	call	44a60 <__malloc_unlock>
   43a50:	0005883a 	mov	r2,zero
   43a54:	003f0906 	br	4367c <_gp+0xffff26c4>
   43a58:	88c00054 	ori	r3,r17,1
   43a5c:	10800054 	ori	r2,r2,1
   43a60:	80c00115 	stw	r3,4(r16)
   43a64:	8463883a 	add	r17,r16,r17
   43a68:	88800115 	stw	r2,4(r17)
   43a6c:	9009883a 	mov	r4,r18
   43a70:	9c400215 	stw	r17,8(r19)
   43a74:	0044a600 	call	44a60 <__malloc_unlock>
   43a78:	80800204 	addi	r2,r16,8
   43a7c:	003eff06 	br	4367c <_gp+0xffff26c4>
   43a80:	00800504 	movi	r2,20
   43a84:	1100492e 	bgeu	r2,r4,43bac <_malloc_r+0x5e8>
   43a88:	00801504 	movi	r2,84
   43a8c:	11005c36 	bltu	r2,r4,43c00 <_malloc_r+0x63c>
   43a90:	8808d33a 	srli	r4,r17,12
   43a94:	21001b84 	addi	r4,r4,110
   43a98:	210b883a 	add	r5,r4,r4
   43a9c:	003f1006 	br	436e0 <_gp+0xffff2728>
   43aa0:	1006d27a 	srli	r3,r2,9
   43aa4:	01400104 	movi	r5,4
   43aa8:	28c0432e 	bgeu	r5,r3,43bb8 <_malloc_r+0x5f4>
   43aac:	01400504 	movi	r5,20
   43ab0:	28c07036 	bltu	r5,r3,43c74 <_malloc_r+0x6b0>
   43ab4:	194016c4 	addi	r5,r3,91
   43ab8:	294d883a 	add	r6,r5,r5
   43abc:	318d883a 	add	r6,r6,r6
   43ac0:	318d883a 	add	r6,r6,r6
   43ac4:	998d883a 	add	r6,r19,r6
   43ac8:	30c00217 	ldw	r3,8(r6)
   43acc:	01c00134 	movhi	r7,4
   43ad0:	39de3904 	addi	r7,r7,30948
   43ad4:	19805726 	beq	r3,r6,43c34 <_malloc_r+0x670>
   43ad8:	01ffff04 	movi	r7,-4
   43adc:	19400117 	ldw	r5,4(r3)
   43ae0:	29ca703a 	and	r5,r5,r7
   43ae4:	1140022e 	bgeu	r2,r5,43af0 <_malloc_r+0x52c>
   43ae8:	18c00217 	ldw	r3,8(r3)
   43aec:	30fffb1e 	bne	r6,r3,43adc <_gp+0xffff2b24>
   43af0:	19400317 	ldw	r5,12(r3)
   43af4:	98800117 	ldw	r2,4(r19)
   43af8:	81400315 	stw	r5,12(r16)
   43afc:	80c00215 	stw	r3,8(r16)
   43b00:	2c000215 	stw	r16,8(r5)
   43b04:	1c000315 	stw	r16,12(r3)
   43b08:	003f2b06 	br	437b8 <_gp+0xffff2800>
   43b0c:	8445883a 	add	r2,r16,r17
   43b10:	8c400054 	ori	r17,r17,1
   43b14:	18800515 	stw	r2,20(r3)
   43b18:	18800415 	stw	r2,16(r3)
   43b1c:	29000054 	ori	r4,r5,1
   43b20:	1147883a 	add	r3,r2,r5
   43b24:	84400115 	stw	r17,4(r16)
   43b28:	11000115 	stw	r4,4(r2)
   43b2c:	12400315 	stw	r9,12(r2)
   43b30:	12400215 	stw	r9,8(r2)
   43b34:	19400015 	stw	r5,0(r3)
   43b38:	9009883a 	mov	r4,r18
   43b3c:	0044a600 	call	44a60 <__malloc_unlock>
   43b40:	80800204 	addi	r2,r16,8
   43b44:	003ecd06 	br	4367c <_gp+0xffff26c4>
   43b48:	18800117 	ldw	r2,4(r3)
   43b4c:	003f1a06 	br	437b8 <_gp+0xffff2800>
   43b50:	5ac00044 	addi	r11,r11,1
   43b54:	588000cc 	andi	r2,r11,3
   43b58:	52800204 	addi	r10,r10,8
   43b5c:	103f2e1e 	bne	r2,zero,43818 <_gp+0xffff2860>
   43b60:	20c000cc 	andi	r3,r4,3
   43b64:	60bffe04 	addi	r2,r12,-8
   43b68:	18006f26 	beq	r3,zero,43d28 <_malloc_r+0x764>
   43b6c:	63000017 	ldw	r12,0(r12)
   43b70:	213fffc4 	addi	r4,r4,-1
   43b74:	60bffa26 	beq	r12,r2,43b60 <_gp+0xffff2ba8>
   43b78:	98800117 	ldw	r2,4(r19)
   43b7c:	294b883a 	add	r5,r5,r5
   43b80:	117f5a36 	bltu	r2,r5,438ec <_gp+0xffff2934>
   43b84:	283f5926 	beq	r5,zero,438ec <_gp+0xffff2934>
   43b88:	1146703a 	and	r3,r2,r5
   43b8c:	18001626 	beq	r3,zero,43be8 <_malloc_r+0x624>
   43b90:	5809883a 	mov	r4,r11
   43b94:	003f1a06 	br	43800 <_gp+0xffff2848>
   43b98:	80800204 	addi	r2,r16,8
   43b9c:	84000517 	ldw	r16,20(r16)
   43ba0:	143ea81e 	bne	r2,r16,43644 <_gp+0xffff268c>
   43ba4:	21000084 	addi	r4,r4,2
   43ba8:	003ee306 	br	43738 <_gp+0xffff2780>
   43bac:	210016c4 	addi	r4,r4,91
   43bb0:	210b883a 	add	r5,r4,r4
   43bb4:	003eca06 	br	436e0 <_gp+0xffff2728>
   43bb8:	100ad1ba 	srli	r5,r2,6
   43bbc:	29400e04 	addi	r5,r5,56
   43bc0:	294d883a 	add	r6,r5,r5
   43bc4:	003fbd06 	br	43abc <_gp+0xffff2b04>
   43bc8:	84ff6026 	beq	r16,r19,4394c <_gp+0xffff2994>
   43bcc:	00800134 	movhi	r2,4
   43bd0:	109e3904 	addi	r2,r2,30948
   43bd4:	14000217 	ldw	r16,8(r2)
   43bd8:	00bfff04 	movi	r2,-4
   43bdc:	80c00117 	ldw	r3,4(r16)
   43be0:	1886703a 	and	r3,r3,r2
   43be4:	003f9406 	br	43a38 <_gp+0xffff2a80>
   43be8:	294b883a 	add	r5,r5,r5
   43bec:	1146703a 	and	r3,r2,r5
   43bf0:	5ac00104 	addi	r11,r11,4
   43bf4:	183ffc26 	beq	r3,zero,43be8 <_gp+0xffff2c30>
   43bf8:	5809883a 	mov	r4,r11
   43bfc:	003f0006 	br	43800 <_gp+0xffff2848>
   43c00:	00805504 	movi	r2,340
   43c04:	11001336 	bltu	r2,r4,43c54 <_malloc_r+0x690>
   43c08:	8808d3fa 	srli	r4,r17,15
   43c0c:	21001dc4 	addi	r4,r4,119
   43c10:	210b883a 	add	r5,r4,r4
   43c14:	003eb206 	br	436e0 <_gp+0xffff2728>
   43c18:	00840004 	movi	r2,4096
   43c1c:	003f5d06 	br	43994 <_gp+0xffff29dc>
   43c20:	00800044 	movi	r2,1
   43c24:	a0800115 	stw	r2,4(r20)
   43c28:	a021883a 	mov	r16,r20
   43c2c:	0007883a 	mov	r3,zero
   43c30:	003f8106 	br	43a38 <_gp+0xffff2a80>
   43c34:	280bd0ba 	srai	r5,r5,2
   43c38:	01800044 	movi	r6,1
   43c3c:	38800117 	ldw	r2,4(r7)
   43c40:	314c983a 	sll	r6,r6,r5
   43c44:	180b883a 	mov	r5,r3
   43c48:	3084b03a 	or	r2,r6,r2
   43c4c:	38800115 	stw	r2,4(r7)
   43c50:	003fa906 	br	43af8 <_gp+0xffff2b40>
   43c54:	00815504 	movi	r2,1364
   43c58:	11001836 	bltu	r2,r4,43cbc <_malloc_r+0x6f8>
   43c5c:	8808d4ba 	srli	r4,r17,18
   43c60:	21001f04 	addi	r4,r4,124
   43c64:	210b883a 	add	r5,r4,r4
   43c68:	003e9d06 	br	436e0 <_gp+0xffff2728>
   43c6c:	bdc00404 	addi	r23,r23,16
   43c70:	003f2f06 	br	43930 <_gp+0xffff2978>
   43c74:	01401504 	movi	r5,84
   43c78:	28c01f36 	bltu	r5,r3,43cf8 <_malloc_r+0x734>
   43c7c:	100ad33a 	srli	r5,r2,12
   43c80:	29401b84 	addi	r5,r5,110
   43c84:	294d883a 	add	r6,r5,r5
   43c88:	003f8c06 	br	43abc <_gp+0xffff2b04>
   43c8c:	9c000217 	ldw	r16,8(r19)
   43c90:	00bfff04 	movi	r2,-4
   43c94:	80c00117 	ldw	r3,4(r16)
   43c98:	1886703a 	and	r3,r3,r2
   43c9c:	003f6606 	br	43a38 <_gp+0xffff2a80>
   43ca0:	e0c3ffcc 	andi	r3,fp,4095
   43ca4:	183f2f1e 	bne	r3,zero,43964 <_gp+0xffff29ac>
   43ca8:	98c00217 	ldw	r3,8(r19)
   43cac:	bd49883a 	add	r4,r23,r21
   43cb0:	21000054 	ori	r4,r4,1
   43cb4:	19000115 	stw	r4,4(r3)
   43cb8:	003f5506 	br	43a10 <_gp+0xffff2a58>
   43cbc:	01403f04 	movi	r5,252
   43cc0:	01001f84 	movi	r4,126
   43cc4:	003e8606 	br	436e0 <_gp+0xffff2728>
   43cc8:	9009883a 	mov	r4,r18
   43ccc:	81400204 	addi	r5,r16,8
   43cd0:	0042fec0 	call	42fec <_free_r>
   43cd4:	00800174 	movhi	r2,5
   43cd8:	10a40f04 	addi	r2,r2,-28612
   43cdc:	10800017 	ldw	r2,0(r2)
   43ce0:	003f4b06 	br	43a10 <_gp+0xffff2a58>
   43ce4:	00c00044 	movi	r3,1
   43ce8:	002f883a 	mov	r23,zero
   43cec:	003f3406 	br	439c0 <_gp+0xffff2a08>
   43cf0:	d5200715 	stw	r20,-32740(gp)
   43cf4:	003f2106 	br	4397c <_gp+0xffff29c4>
   43cf8:	01405504 	movi	r5,340
   43cfc:	28c00436 	bltu	r5,r3,43d10 <_malloc_r+0x74c>
   43d00:	100ad3fa 	srli	r5,r2,15
   43d04:	29401dc4 	addi	r5,r5,119
   43d08:	294d883a 	add	r6,r5,r5
   43d0c:	003f6b06 	br	43abc <_gp+0xffff2b04>
   43d10:	01415504 	movi	r5,1364
   43d14:	28c00936 	bltu	r5,r3,43d3c <_malloc_r+0x778>
   43d18:	100ad4ba 	srli	r5,r2,18
   43d1c:	29401f04 	addi	r5,r5,124
   43d20:	294d883a 	add	r6,r5,r5
   43d24:	003f6506 	br	43abc <_gp+0xffff2b04>
   43d28:	98800117 	ldw	r2,4(r19)
   43d2c:	0146303a 	nor	r3,zero,r5
   43d30:	1884703a 	and	r2,r3,r2
   43d34:	98800115 	stw	r2,4(r19)
   43d38:	003f9006 	br	43b7c <_gp+0xffff2bc4>
   43d3c:	01803f04 	movi	r6,252
   43d40:	01401f84 	movi	r5,126
   43d44:	003f5d06 	br	43abc <_gp+0xffff2b04>

00043d48 <_sbrk_r>:
   43d48:	defffd04 	addi	sp,sp,-12
   43d4c:	dc400115 	stw	r17,4(sp)
   43d50:	dc000015 	stw	r16,0(sp)
   43d54:	2023883a 	mov	r17,r4
   43d58:	04000174 	movhi	r16,5
   43d5c:	84240804 	addi	r16,r16,-28640
   43d60:	2809883a 	mov	r4,r5
   43d64:	dfc00215 	stw	ra,8(sp)
   43d68:	80000015 	stw	zero,0(r16)
   43d6c:	0044eb00 	call	44eb0 <sbrk>
   43d70:	00ffffc4 	movi	r3,-1
   43d74:	10c00526 	beq	r2,r3,43d8c <_sbrk_r+0x44>
   43d78:	dfc00217 	ldw	ra,8(sp)
   43d7c:	dc400117 	ldw	r17,4(sp)
   43d80:	dc000017 	ldw	r16,0(sp)
   43d84:	dec00304 	addi	sp,sp,12
   43d88:	f800283a 	ret
   43d8c:	80c00017 	ldw	r3,0(r16)
   43d90:	183ff926 	beq	r3,zero,43d78 <_gp+0xffff2dc0>
   43d94:	88c00015 	stw	r3,0(r17)
   43d98:	dfc00217 	ldw	ra,8(sp)
   43d9c:	dc400117 	ldw	r17,4(sp)
   43da0:	dc000017 	ldw	r16,0(sp)
   43da4:	dec00304 	addi	sp,sp,12
   43da8:	f800283a 	ret

00043dac <__sread>:
   43dac:	defffe04 	addi	sp,sp,-8
   43db0:	dc000015 	stw	r16,0(sp)
   43db4:	2821883a 	mov	r16,r5
   43db8:	2940038f 	ldh	r5,14(r5)
   43dbc:	dfc00115 	stw	ra,4(sp)
   43dc0:	00442440 	call	44244 <_read_r>
   43dc4:	10000716 	blt	r2,zero,43de4 <__sread+0x38>
   43dc8:	80c01417 	ldw	r3,80(r16)
   43dcc:	1887883a 	add	r3,r3,r2
   43dd0:	80c01415 	stw	r3,80(r16)
   43dd4:	dfc00117 	ldw	ra,4(sp)
   43dd8:	dc000017 	ldw	r16,0(sp)
   43ddc:	dec00204 	addi	sp,sp,8
   43de0:	f800283a 	ret
   43de4:	80c0030b 	ldhu	r3,12(r16)
   43de8:	18fbffcc 	andi	r3,r3,61439
   43dec:	80c0030d 	sth	r3,12(r16)
   43df0:	dfc00117 	ldw	ra,4(sp)
   43df4:	dc000017 	ldw	r16,0(sp)
   43df8:	dec00204 	addi	sp,sp,8
   43dfc:	f800283a 	ret

00043e00 <__swrite>:
   43e00:	2880030b 	ldhu	r2,12(r5)
   43e04:	defffb04 	addi	sp,sp,-20
   43e08:	dcc00315 	stw	r19,12(sp)
   43e0c:	10c0400c 	andi	r3,r2,256
   43e10:	18ffffcc 	andi	r3,r3,65535
   43e14:	18e0001c 	xori	r3,r3,32768
   43e18:	dc800215 	stw	r18,8(sp)
   43e1c:	dc400115 	stw	r17,4(sp)
   43e20:	dc000015 	stw	r16,0(sp)
   43e24:	dfc00415 	stw	ra,16(sp)
   43e28:	18e00004 	addi	r3,r3,-32768
   43e2c:	2821883a 	mov	r16,r5
   43e30:	2027883a 	mov	r19,r4
   43e34:	3025883a 	mov	r18,r6
   43e38:	3823883a 	mov	r17,r7
   43e3c:	18000526 	beq	r3,zero,43e54 <__swrite+0x54>
   43e40:	2940038f 	ldh	r5,14(r5)
   43e44:	000d883a 	mov	r6,zero
   43e48:	01c00084 	movi	r7,2
   43e4c:	00441d80 	call	441d8 <_lseek_r>
   43e50:	8080030b 	ldhu	r2,12(r16)
   43e54:	8140038f 	ldh	r5,14(r16)
   43e58:	10bbffcc 	andi	r2,r2,61439
   43e5c:	9809883a 	mov	r4,r19
   43e60:	900d883a 	mov	r6,r18
   43e64:	880f883a 	mov	r7,r17
   43e68:	8080030d 	sth	r2,12(r16)
   43e6c:	dfc00417 	ldw	ra,16(sp)
   43e70:	dcc00317 	ldw	r19,12(sp)
   43e74:	dc800217 	ldw	r18,8(sp)
   43e78:	dc400117 	ldw	r17,4(sp)
   43e7c:	dc000017 	ldw	r16,0(sp)
   43e80:	dec00504 	addi	sp,sp,20
   43e84:	0043eec1 	jmpi	43eec <_write_r>

00043e88 <__sseek>:
   43e88:	defffe04 	addi	sp,sp,-8
   43e8c:	dc000015 	stw	r16,0(sp)
   43e90:	2821883a 	mov	r16,r5
   43e94:	2940038f 	ldh	r5,14(r5)
   43e98:	dfc00115 	stw	ra,4(sp)
   43e9c:	00441d80 	call	441d8 <_lseek_r>
   43ea0:	00ffffc4 	movi	r3,-1
   43ea4:	10c00826 	beq	r2,r3,43ec8 <__sseek+0x40>
   43ea8:	80c0030b 	ldhu	r3,12(r16)
   43eac:	80801415 	stw	r2,80(r16)
   43eb0:	18c40014 	ori	r3,r3,4096
   43eb4:	80c0030d 	sth	r3,12(r16)
   43eb8:	dfc00117 	ldw	ra,4(sp)
   43ebc:	dc000017 	ldw	r16,0(sp)
   43ec0:	dec00204 	addi	sp,sp,8
   43ec4:	f800283a 	ret
   43ec8:	80c0030b 	ldhu	r3,12(r16)
   43ecc:	18fbffcc 	andi	r3,r3,61439
   43ed0:	80c0030d 	sth	r3,12(r16)
   43ed4:	dfc00117 	ldw	ra,4(sp)
   43ed8:	dc000017 	ldw	r16,0(sp)
   43edc:	dec00204 	addi	sp,sp,8
   43ee0:	f800283a 	ret

00043ee4 <__sclose>:
   43ee4:	2940038f 	ldh	r5,14(r5)
   43ee8:	0043f581 	jmpi	43f58 <_close_r>

00043eec <_write_r>:
   43eec:	defffd04 	addi	sp,sp,-12
   43ef0:	dc400115 	stw	r17,4(sp)
   43ef4:	dc000015 	stw	r16,0(sp)
   43ef8:	2023883a 	mov	r17,r4
   43efc:	04000174 	movhi	r16,5
   43f00:	84240804 	addi	r16,r16,-28640
   43f04:	2809883a 	mov	r4,r5
   43f08:	300b883a 	mov	r5,r6
   43f0c:	380d883a 	mov	r6,r7
   43f10:	dfc00215 	stw	ra,8(sp)
   43f14:	80000015 	stw	zero,0(r16)
   43f18:	0044fe00 	call	44fe0 <write>
   43f1c:	00ffffc4 	movi	r3,-1
   43f20:	10c00526 	beq	r2,r3,43f38 <_write_r+0x4c>
   43f24:	dfc00217 	ldw	ra,8(sp)
   43f28:	dc400117 	ldw	r17,4(sp)
   43f2c:	dc000017 	ldw	r16,0(sp)
   43f30:	dec00304 	addi	sp,sp,12
   43f34:	f800283a 	ret
   43f38:	80c00017 	ldw	r3,0(r16)
   43f3c:	183ff926 	beq	r3,zero,43f24 <_gp+0xffff2f6c>
   43f40:	88c00015 	stw	r3,0(r17)
   43f44:	dfc00217 	ldw	ra,8(sp)
   43f48:	dc400117 	ldw	r17,4(sp)
   43f4c:	dc000017 	ldw	r16,0(sp)
   43f50:	dec00304 	addi	sp,sp,12
   43f54:	f800283a 	ret

00043f58 <_close_r>:
   43f58:	defffd04 	addi	sp,sp,-12
   43f5c:	dc400115 	stw	r17,4(sp)
   43f60:	dc000015 	stw	r16,0(sp)
   43f64:	2023883a 	mov	r17,r4
   43f68:	04000174 	movhi	r16,5
   43f6c:	84240804 	addi	r16,r16,-28640
   43f70:	2809883a 	mov	r4,r5
   43f74:	dfc00215 	stw	ra,8(sp)
   43f78:	80000015 	stw	zero,0(r16)
   43f7c:	00443000 	call	44300 <close>
   43f80:	00ffffc4 	movi	r3,-1
   43f84:	10c00526 	beq	r2,r3,43f9c <_close_r+0x44>
   43f88:	dfc00217 	ldw	ra,8(sp)
   43f8c:	dc400117 	ldw	r17,4(sp)
   43f90:	dc000017 	ldw	r16,0(sp)
   43f94:	dec00304 	addi	sp,sp,12
   43f98:	f800283a 	ret
   43f9c:	80c00017 	ldw	r3,0(r16)
   43fa0:	183ff926 	beq	r3,zero,43f88 <_gp+0xffff2fd0>
   43fa4:	88c00015 	stw	r3,0(r17)
   43fa8:	dfc00217 	ldw	ra,8(sp)
   43fac:	dc400117 	ldw	r17,4(sp)
   43fb0:	dc000017 	ldw	r16,0(sp)
   43fb4:	dec00304 	addi	sp,sp,12
   43fb8:	f800283a 	ret

00043fbc <_fclose_r>:
   43fbc:	defffc04 	addi	sp,sp,-16
   43fc0:	dc400115 	stw	r17,4(sp)
   43fc4:	dc000015 	stw	r16,0(sp)
   43fc8:	dfc00315 	stw	ra,12(sp)
   43fcc:	dc800215 	stw	r18,8(sp)
   43fd0:	2821883a 	mov	r16,r5
   43fd4:	2023883a 	mov	r17,r4
   43fd8:	28003426 	beq	r5,zero,440ac <_fclose_r+0xf0>
   43fdc:	0042e700 	call	42e70 <__sfp_lock_acquire>
   43fe0:	88000226 	beq	r17,zero,43fec <_fclose_r+0x30>
   43fe4:	88800e17 	ldw	r2,56(r17)
   43fe8:	10003826 	beq	r2,zero,440cc <_fclose_r+0x110>
   43fec:	8080030f 	ldh	r2,12(r16)
   43ff0:	10002526 	beq	r2,zero,44088 <_fclose_r+0xcc>
   43ff4:	8809883a 	mov	r4,r17
   43ff8:	800b883a 	mov	r5,r16
   43ffc:	00429ac0 	call	429ac <_fflush_r>
   44000:	1025883a 	mov	r18,r2
   44004:	80800b17 	ldw	r2,44(r16)
   44008:	10000426 	beq	r2,zero,4401c <_fclose_r+0x60>
   4400c:	81400717 	ldw	r5,28(r16)
   44010:	8809883a 	mov	r4,r17
   44014:	103ee83a 	callr	r2
   44018:	10003516 	blt	r2,zero,440f0 <_fclose_r+0x134>
   4401c:	8080030b 	ldhu	r2,12(r16)
   44020:	1080200c 	andi	r2,r2,128
   44024:	10bfffcc 	andi	r2,r2,65535
   44028:	10a0001c 	xori	r2,r2,32768
   4402c:	10a00004 	addi	r2,r2,-32768
   44030:	10002b1e 	bne	r2,zero,440e0 <_fclose_r+0x124>
   44034:	81400c17 	ldw	r5,48(r16)
   44038:	28000526 	beq	r5,zero,44050 <_fclose_r+0x94>
   4403c:	80801004 	addi	r2,r16,64
   44040:	28800226 	beq	r5,r2,4404c <_fclose_r+0x90>
   44044:	8809883a 	mov	r4,r17
   44048:	0042fec0 	call	42fec <_free_r>
   4404c:	80000c15 	stw	zero,48(r16)
   44050:	81401117 	ldw	r5,68(r16)
   44054:	28000326 	beq	r5,zero,44064 <_fclose_r+0xa8>
   44058:	8809883a 	mov	r4,r17
   4405c:	0042fec0 	call	42fec <_free_r>
   44060:	80001115 	stw	zero,68(r16)
   44064:	8000030d 	sth	zero,12(r16)
   44068:	0042e740 	call	42e74 <__sfp_lock_release>
   4406c:	9005883a 	mov	r2,r18
   44070:	dfc00317 	ldw	ra,12(sp)
   44074:	dc800217 	ldw	r18,8(sp)
   44078:	dc400117 	ldw	r17,4(sp)
   4407c:	dc000017 	ldw	r16,0(sp)
   44080:	dec00404 	addi	sp,sp,16
   44084:	f800283a 	ret
   44088:	0042e740 	call	42e74 <__sfp_lock_release>
   4408c:	0025883a 	mov	r18,zero
   44090:	9005883a 	mov	r2,r18
   44094:	dfc00317 	ldw	ra,12(sp)
   44098:	dc800217 	ldw	r18,8(sp)
   4409c:	dc400117 	ldw	r17,4(sp)
   440a0:	dc000017 	ldw	r16,0(sp)
   440a4:	dec00404 	addi	sp,sp,16
   440a8:	f800283a 	ret
   440ac:	0025883a 	mov	r18,zero
   440b0:	9005883a 	mov	r2,r18
   440b4:	dfc00317 	ldw	ra,12(sp)
   440b8:	dc800217 	ldw	r18,8(sp)
   440bc:	dc400117 	ldw	r17,4(sp)
   440c0:	dc000017 	ldw	r16,0(sp)
   440c4:	dec00404 	addi	sp,sp,16
   440c8:	f800283a 	ret
   440cc:	8809883a 	mov	r4,r17
   440d0:	0042c680 	call	42c68 <__sinit>
   440d4:	8080030f 	ldh	r2,12(r16)
   440d8:	103fc61e 	bne	r2,zero,43ff4 <_gp+0xffff303c>
   440dc:	003fea06 	br	44088 <_gp+0xffff30d0>
   440e0:	81400417 	ldw	r5,16(r16)
   440e4:	8809883a 	mov	r4,r17
   440e8:	0042fec0 	call	42fec <_free_r>
   440ec:	003fd106 	br	44034 <_gp+0xffff307c>
   440f0:	04bfffc4 	movi	r18,-1
   440f4:	003fc906 	br	4401c <_gp+0xffff3064>

000440f8 <fclose>:
   440f8:	00800174 	movhi	r2,5
   440fc:	10a3f404 	addi	r2,r2,-28720
   44100:	200b883a 	mov	r5,r4
   44104:	11000017 	ldw	r4,0(r2)
   44108:	0043fbc1 	jmpi	43fbc <_fclose_r>

0004410c <_fstat_r>:
   4410c:	defffd04 	addi	sp,sp,-12
   44110:	dc400115 	stw	r17,4(sp)
   44114:	dc000015 	stw	r16,0(sp)
   44118:	2023883a 	mov	r17,r4
   4411c:	04000174 	movhi	r16,5
   44120:	84240804 	addi	r16,r16,-28640
   44124:	2809883a 	mov	r4,r5
   44128:	300b883a 	mov	r5,r6
   4412c:	dfc00215 	stw	ra,8(sp)
   44130:	80000015 	stw	zero,0(r16)
   44134:	00444480 	call	44448 <fstat>
   44138:	00ffffc4 	movi	r3,-1
   4413c:	10c00526 	beq	r2,r3,44154 <_fstat_r+0x48>
   44140:	dfc00217 	ldw	ra,8(sp)
   44144:	dc400117 	ldw	r17,4(sp)
   44148:	dc000017 	ldw	r16,0(sp)
   4414c:	dec00304 	addi	sp,sp,12
   44150:	f800283a 	ret
   44154:	80c00017 	ldw	r3,0(r16)
   44158:	183ff926 	beq	r3,zero,44140 <_gp+0xffff3188>
   4415c:	88c00015 	stw	r3,0(r17)
   44160:	dfc00217 	ldw	ra,8(sp)
   44164:	dc400117 	ldw	r17,4(sp)
   44168:	dc000017 	ldw	r16,0(sp)
   4416c:	dec00304 	addi	sp,sp,12
   44170:	f800283a 	ret

00044174 <_isatty_r>:
   44174:	defffd04 	addi	sp,sp,-12
   44178:	dc400115 	stw	r17,4(sp)
   4417c:	dc000015 	stw	r16,0(sp)
   44180:	2023883a 	mov	r17,r4
   44184:	04000174 	movhi	r16,5
   44188:	84240804 	addi	r16,r16,-28640
   4418c:	2809883a 	mov	r4,r5
   44190:	dfc00215 	stw	ra,8(sp)
   44194:	80000015 	stw	zero,0(r16)
   44198:	00448100 	call	44810 <isatty>
   4419c:	00ffffc4 	movi	r3,-1
   441a0:	10c00526 	beq	r2,r3,441b8 <_isatty_r+0x44>
   441a4:	dfc00217 	ldw	ra,8(sp)
   441a8:	dc400117 	ldw	r17,4(sp)
   441ac:	dc000017 	ldw	r16,0(sp)
   441b0:	dec00304 	addi	sp,sp,12
   441b4:	f800283a 	ret
   441b8:	80c00017 	ldw	r3,0(r16)
   441bc:	183ff926 	beq	r3,zero,441a4 <_gp+0xffff31ec>
   441c0:	88c00015 	stw	r3,0(r17)
   441c4:	dfc00217 	ldw	ra,8(sp)
   441c8:	dc400117 	ldw	r17,4(sp)
   441cc:	dc000017 	ldw	r16,0(sp)
   441d0:	dec00304 	addi	sp,sp,12
   441d4:	f800283a 	ret

000441d8 <_lseek_r>:
   441d8:	defffd04 	addi	sp,sp,-12
   441dc:	dc400115 	stw	r17,4(sp)
   441e0:	dc000015 	stw	r16,0(sp)
   441e4:	2023883a 	mov	r17,r4
   441e8:	04000174 	movhi	r16,5
   441ec:	84240804 	addi	r16,r16,-28640
   441f0:	2809883a 	mov	r4,r5
   441f4:	300b883a 	mov	r5,r6
   441f8:	380d883a 	mov	r6,r7
   441fc:	dfc00215 	stw	ra,8(sp)
   44200:	80000015 	stw	zero,0(r16)
   44204:	00449040 	call	44904 <lseek>
   44208:	00ffffc4 	movi	r3,-1
   4420c:	10c00526 	beq	r2,r3,44224 <_lseek_r+0x4c>
   44210:	dfc00217 	ldw	ra,8(sp)
   44214:	dc400117 	ldw	r17,4(sp)
   44218:	dc000017 	ldw	r16,0(sp)
   4421c:	dec00304 	addi	sp,sp,12
   44220:	f800283a 	ret
   44224:	80c00017 	ldw	r3,0(r16)
   44228:	183ff926 	beq	r3,zero,44210 <_gp+0xffff3258>
   4422c:	88c00015 	stw	r3,0(r17)
   44230:	dfc00217 	ldw	ra,8(sp)
   44234:	dc400117 	ldw	r17,4(sp)
   44238:	dc000017 	ldw	r16,0(sp)
   4423c:	dec00304 	addi	sp,sp,12
   44240:	f800283a 	ret

00044244 <_read_r>:
   44244:	defffd04 	addi	sp,sp,-12
   44248:	dc400115 	stw	r17,4(sp)
   4424c:	dc000015 	stw	r16,0(sp)
   44250:	2023883a 	mov	r17,r4
   44254:	04000174 	movhi	r16,5
   44258:	84240804 	addi	r16,r16,-28640
   4425c:	2809883a 	mov	r4,r5
   44260:	300b883a 	mov	r5,r6
   44264:	380d883a 	mov	r6,r7
   44268:	dfc00215 	stw	ra,8(sp)
   4426c:	80000015 	stw	zero,0(r16)
   44270:	0044d3c0 	call	44d3c <read>
   44274:	00ffffc4 	movi	r3,-1
   44278:	10c00526 	beq	r2,r3,44290 <_read_r+0x4c>
   4427c:	dfc00217 	ldw	ra,8(sp)
   44280:	dc400117 	ldw	r17,4(sp)
   44284:	dc000017 	ldw	r16,0(sp)
   44288:	dec00304 	addi	sp,sp,12
   4428c:	f800283a 	ret
   44290:	80c00017 	ldw	r3,0(r16)
   44294:	183ff926 	beq	r3,zero,4427c <_gp+0xffff32c4>
   44298:	88c00015 	stw	r3,0(r17)
   4429c:	dfc00217 	ldw	ra,8(sp)
   442a0:	dc400117 	ldw	r17,4(sp)
   442a4:	dc000017 	ldw	r16,0(sp)
   442a8:	dec00304 	addi	sp,sp,12
   442ac:	f800283a 	ret

000442b0 <alt_get_errno>:
   442b0:	defffe04 	addi	sp,sp,-8
   442b4:	dfc00115 	stw	ra,4(sp)
   442b8:	df000015 	stw	fp,0(sp)
   442bc:	d839883a 	mov	fp,sp
   442c0:	00800174 	movhi	r2,5
   442c4:	10a3fc04 	addi	r2,r2,-28688
   442c8:	10800017 	ldw	r2,0(r2)
   442cc:	10000526 	beq	r2,zero,442e4 <alt_get_errno+0x34>
   442d0:	00800174 	movhi	r2,5
   442d4:	10a3fc04 	addi	r2,r2,-28688
   442d8:	10800017 	ldw	r2,0(r2)
   442dc:	103ee83a 	callr	r2
   442e0:	00000206 	br	442ec <alt_get_errno+0x3c>
   442e4:	00800174 	movhi	r2,5
   442e8:	10a40804 	addi	r2,r2,-28640
   442ec:	e037883a 	mov	sp,fp
   442f0:	dfc00117 	ldw	ra,4(sp)
   442f4:	df000017 	ldw	fp,0(sp)
   442f8:	dec00204 	addi	sp,sp,8
   442fc:	f800283a 	ret

00044300 <close>:
   44300:	defffb04 	addi	sp,sp,-20
   44304:	dfc00415 	stw	ra,16(sp)
   44308:	df000315 	stw	fp,12(sp)
   4430c:	df000304 	addi	fp,sp,12
   44310:	e13fff15 	stw	r4,-4(fp)
   44314:	e0bfff17 	ldw	r2,-4(fp)
   44318:	10000716 	blt	r2,zero,44338 <close+0x38>
   4431c:	e13fff17 	ldw	r4,-4(fp)
   44320:	01400304 	movi	r5,12
   44324:	0041ce40 	call	41ce4 <__mulsi3>
   44328:	00c00134 	movhi	r3,4
   4432c:	18df4504 	addi	r3,r3,32020
   44330:	10c5883a 	add	r2,r2,r3
   44334:	00000106 	br	4433c <close+0x3c>
   44338:	0005883a 	mov	r2,zero
   4433c:	e0bffd15 	stw	r2,-12(fp)
   44340:	e0bffd17 	ldw	r2,-12(fp)
   44344:	10001826 	beq	r2,zero,443a8 <close+0xa8>
   44348:	e0bffd17 	ldw	r2,-12(fp)
   4434c:	10800017 	ldw	r2,0(r2)
   44350:	10800417 	ldw	r2,16(r2)
   44354:	10000626 	beq	r2,zero,44370 <close+0x70>
   44358:	e0bffd17 	ldw	r2,-12(fp)
   4435c:	10800017 	ldw	r2,0(r2)
   44360:	10800417 	ldw	r2,16(r2)
   44364:	e13ffd17 	ldw	r4,-12(fp)
   44368:	103ee83a 	callr	r2
   4436c:	00000106 	br	44374 <close+0x74>
   44370:	0005883a 	mov	r2,zero
   44374:	e0bffe15 	stw	r2,-8(fp)
   44378:	e13fff17 	ldw	r4,-4(fp)
   4437c:	0044e300 	call	44e30 <alt_release_fd>
   44380:	e0bffe17 	ldw	r2,-8(fp)
   44384:	1000060e 	bge	r2,zero,443a0 <close+0xa0>
   44388:	00442b00 	call	442b0 <alt_get_errno>
   4438c:	e0fffe17 	ldw	r3,-8(fp)
   44390:	00c7c83a 	sub	r3,zero,r3
   44394:	10c00015 	stw	r3,0(r2)
   44398:	00bfffc4 	movi	r2,-1
   4439c:	00000606 	br	443b8 <close+0xb8>
   443a0:	0005883a 	mov	r2,zero
   443a4:	00000406 	br	443b8 <close+0xb8>
   443a8:	00442b00 	call	442b0 <alt_get_errno>
   443ac:	00c01444 	movi	r3,81
   443b0:	10c00015 	stw	r3,0(r2)
   443b4:	00bfffc4 	movi	r2,-1
   443b8:	e037883a 	mov	sp,fp
   443bc:	dfc00117 	ldw	ra,4(sp)
   443c0:	df000017 	ldw	fp,0(sp)
   443c4:	dec00204 	addi	sp,sp,8
   443c8:	f800283a 	ret

000443cc <alt_dev_null_write>:
   443cc:	defffc04 	addi	sp,sp,-16
   443d0:	df000315 	stw	fp,12(sp)
   443d4:	df000304 	addi	fp,sp,12
   443d8:	e13ffd15 	stw	r4,-12(fp)
   443dc:	e17ffe15 	stw	r5,-8(fp)
   443e0:	e1bfff15 	stw	r6,-4(fp)
   443e4:	e0bfff17 	ldw	r2,-4(fp)
   443e8:	e037883a 	mov	sp,fp
   443ec:	df000017 	ldw	fp,0(sp)
   443f0:	dec00104 	addi	sp,sp,4
   443f4:	f800283a 	ret

000443f8 <alt_get_errno>:
   443f8:	defffe04 	addi	sp,sp,-8
   443fc:	dfc00115 	stw	ra,4(sp)
   44400:	df000015 	stw	fp,0(sp)
   44404:	d839883a 	mov	fp,sp
   44408:	00800174 	movhi	r2,5
   4440c:	10a3fc04 	addi	r2,r2,-28688
   44410:	10800017 	ldw	r2,0(r2)
   44414:	10000526 	beq	r2,zero,4442c <alt_get_errno+0x34>
   44418:	00800174 	movhi	r2,5
   4441c:	10a3fc04 	addi	r2,r2,-28688
   44420:	10800017 	ldw	r2,0(r2)
   44424:	103ee83a 	callr	r2
   44428:	00000206 	br	44434 <alt_get_errno+0x3c>
   4442c:	00800174 	movhi	r2,5
   44430:	10a40804 	addi	r2,r2,-28640
   44434:	e037883a 	mov	sp,fp
   44438:	dfc00117 	ldw	ra,4(sp)
   4443c:	df000017 	ldw	fp,0(sp)
   44440:	dec00204 	addi	sp,sp,8
   44444:	f800283a 	ret

00044448 <fstat>:
   44448:	defffb04 	addi	sp,sp,-20
   4444c:	dfc00415 	stw	ra,16(sp)
   44450:	df000315 	stw	fp,12(sp)
   44454:	df000304 	addi	fp,sp,12
   44458:	e13ffe15 	stw	r4,-8(fp)
   4445c:	e17fff15 	stw	r5,-4(fp)
   44460:	e0bffe17 	ldw	r2,-8(fp)
   44464:	10000716 	blt	r2,zero,44484 <fstat+0x3c>
   44468:	e13ffe17 	ldw	r4,-8(fp)
   4446c:	01400304 	movi	r5,12
   44470:	0041ce40 	call	41ce4 <__mulsi3>
   44474:	00c00134 	movhi	r3,4
   44478:	18df4504 	addi	r3,r3,32020
   4447c:	10c5883a 	add	r2,r2,r3
   44480:	00000106 	br	44488 <fstat+0x40>
   44484:	0005883a 	mov	r2,zero
   44488:	e0bffd15 	stw	r2,-12(fp)
   4448c:	e0bffd17 	ldw	r2,-12(fp)
   44490:	10001026 	beq	r2,zero,444d4 <fstat+0x8c>
   44494:	e0bffd17 	ldw	r2,-12(fp)
   44498:	10800017 	ldw	r2,0(r2)
   4449c:	10800817 	ldw	r2,32(r2)
   444a0:	10000726 	beq	r2,zero,444c0 <fstat+0x78>
   444a4:	e0bffd17 	ldw	r2,-12(fp)
   444a8:	10800017 	ldw	r2,0(r2)
   444ac:	10800817 	ldw	r2,32(r2)
   444b0:	e13ffd17 	ldw	r4,-12(fp)
   444b4:	e17fff17 	ldw	r5,-4(fp)
   444b8:	103ee83a 	callr	r2
   444bc:	00000906 	br	444e4 <fstat+0x9c>
   444c0:	e0bfff17 	ldw	r2,-4(fp)
   444c4:	00c80004 	movi	r3,8192
   444c8:	10c00115 	stw	r3,4(r2)
   444cc:	0005883a 	mov	r2,zero
   444d0:	00000406 	br	444e4 <fstat+0x9c>
   444d4:	00443f80 	call	443f8 <alt_get_errno>
   444d8:	00c01444 	movi	r3,81
   444dc:	10c00015 	stw	r3,0(r2)
   444e0:	00bfffc4 	movi	r2,-1
   444e4:	e037883a 	mov	sp,fp
   444e8:	dfc00117 	ldw	ra,4(sp)
   444ec:	df000017 	ldw	fp,0(sp)
   444f0:	dec00204 	addi	sp,sp,8
   444f4:	f800283a 	ret

000444f8 <alt_ic_isr_register>:
   444f8:	defff904 	addi	sp,sp,-28
   444fc:	dfc00615 	stw	ra,24(sp)
   44500:	df000515 	stw	fp,20(sp)
   44504:	df000504 	addi	fp,sp,20
   44508:	e13ffc15 	stw	r4,-16(fp)
   4450c:	e17ffd15 	stw	r5,-12(fp)
   44510:	e1bffe15 	stw	r6,-8(fp)
   44514:	e1ffff15 	stw	r7,-4(fp)
   44518:	e0800217 	ldw	r2,8(fp)
   4451c:	d8800015 	stw	r2,0(sp)
   44520:	e13ffc17 	ldw	r4,-16(fp)
   44524:	e17ffd17 	ldw	r5,-12(fp)
   44528:	e1bffe17 	ldw	r6,-8(fp)
   4452c:	e1ffff17 	ldw	r7,-4(fp)
   44530:	00446d00 	call	446d0 <alt_iic_isr_register>
   44534:	e037883a 	mov	sp,fp
   44538:	dfc00117 	ldw	ra,4(sp)
   4453c:	df000017 	ldw	fp,0(sp)
   44540:	dec00204 	addi	sp,sp,8
   44544:	f800283a 	ret

00044548 <alt_ic_irq_enable>:
   44548:	defff904 	addi	sp,sp,-28
   4454c:	df000615 	stw	fp,24(sp)
   44550:	df000604 	addi	fp,sp,24
   44554:	e13ffe15 	stw	r4,-8(fp)
   44558:	e17fff15 	stw	r5,-4(fp)
   4455c:	e0bfff17 	ldw	r2,-4(fp)
   44560:	e0bffa15 	stw	r2,-24(fp)
   44564:	0005303a 	rdctl	r2,status
   44568:	e0bffb15 	stw	r2,-20(fp)
   4456c:	e0fffb17 	ldw	r3,-20(fp)
   44570:	00bfff84 	movi	r2,-2
   44574:	1884703a 	and	r2,r3,r2
   44578:	1001703a 	wrctl	status,r2
   4457c:	e0bffb17 	ldw	r2,-20(fp)
   44580:	e0bffc15 	stw	r2,-16(fp)
   44584:	e0bffa17 	ldw	r2,-24(fp)
   44588:	00c00044 	movi	r3,1
   4458c:	1884983a 	sll	r2,r3,r2
   44590:	1007883a 	mov	r3,r2
   44594:	00800174 	movhi	r2,5
   44598:	10a40904 	addi	r2,r2,-28636
   4459c:	10800017 	ldw	r2,0(r2)
   445a0:	1886b03a 	or	r3,r3,r2
   445a4:	00800174 	movhi	r2,5
   445a8:	10a40904 	addi	r2,r2,-28636
   445ac:	10c00015 	stw	r3,0(r2)
   445b0:	00800174 	movhi	r2,5
   445b4:	10a40904 	addi	r2,r2,-28636
   445b8:	10800017 	ldw	r2,0(r2)
   445bc:	100170fa 	wrctl	ienable,r2
   445c0:	e0bffc17 	ldw	r2,-16(fp)
   445c4:	e0bffd15 	stw	r2,-12(fp)
   445c8:	e0bffd17 	ldw	r2,-12(fp)
   445cc:	1001703a 	wrctl	status,r2
   445d0:	0005883a 	mov	r2,zero
   445d4:	e037883a 	mov	sp,fp
   445d8:	df000017 	ldw	fp,0(sp)
   445dc:	dec00104 	addi	sp,sp,4
   445e0:	f800283a 	ret

000445e4 <alt_ic_irq_disable>:
   445e4:	defff904 	addi	sp,sp,-28
   445e8:	df000615 	stw	fp,24(sp)
   445ec:	df000604 	addi	fp,sp,24
   445f0:	e13ffe15 	stw	r4,-8(fp)
   445f4:	e17fff15 	stw	r5,-4(fp)
   445f8:	e0bfff17 	ldw	r2,-4(fp)
   445fc:	e0bffa15 	stw	r2,-24(fp)
   44600:	0005303a 	rdctl	r2,status
   44604:	e0bffb15 	stw	r2,-20(fp)
   44608:	e0fffb17 	ldw	r3,-20(fp)
   4460c:	00bfff84 	movi	r2,-2
   44610:	1884703a 	and	r2,r3,r2
   44614:	1001703a 	wrctl	status,r2
   44618:	e0bffb17 	ldw	r2,-20(fp)
   4461c:	e0bffc15 	stw	r2,-16(fp)
   44620:	e0bffa17 	ldw	r2,-24(fp)
   44624:	00c00044 	movi	r3,1
   44628:	1884983a 	sll	r2,r3,r2
   4462c:	0084303a 	nor	r2,zero,r2
   44630:	1007883a 	mov	r3,r2
   44634:	00800174 	movhi	r2,5
   44638:	10a40904 	addi	r2,r2,-28636
   4463c:	10800017 	ldw	r2,0(r2)
   44640:	1886703a 	and	r3,r3,r2
   44644:	00800174 	movhi	r2,5
   44648:	10a40904 	addi	r2,r2,-28636
   4464c:	10c00015 	stw	r3,0(r2)
   44650:	00800174 	movhi	r2,5
   44654:	10a40904 	addi	r2,r2,-28636
   44658:	10800017 	ldw	r2,0(r2)
   4465c:	100170fa 	wrctl	ienable,r2
   44660:	e0bffc17 	ldw	r2,-16(fp)
   44664:	e0bffd15 	stw	r2,-12(fp)
   44668:	e0bffd17 	ldw	r2,-12(fp)
   4466c:	1001703a 	wrctl	status,r2
   44670:	0005883a 	mov	r2,zero
   44674:	e037883a 	mov	sp,fp
   44678:	df000017 	ldw	fp,0(sp)
   4467c:	dec00104 	addi	sp,sp,4
   44680:	f800283a 	ret

00044684 <alt_ic_irq_enabled>:
   44684:	defffc04 	addi	sp,sp,-16
   44688:	df000315 	stw	fp,12(sp)
   4468c:	df000304 	addi	fp,sp,12
   44690:	e13ffe15 	stw	r4,-8(fp)
   44694:	e17fff15 	stw	r5,-4(fp)
   44698:	000530fa 	rdctl	r2,ienable
   4469c:	e0bffd15 	stw	r2,-12(fp)
   446a0:	e0bfff17 	ldw	r2,-4(fp)
   446a4:	00c00044 	movi	r3,1
   446a8:	1884983a 	sll	r2,r3,r2
   446ac:	1007883a 	mov	r3,r2
   446b0:	e0bffd17 	ldw	r2,-12(fp)
   446b4:	1884703a 	and	r2,r3,r2
   446b8:	1004c03a 	cmpne	r2,r2,zero
   446bc:	10803fcc 	andi	r2,r2,255
   446c0:	e037883a 	mov	sp,fp
   446c4:	df000017 	ldw	fp,0(sp)
   446c8:	dec00104 	addi	sp,sp,4
   446cc:	f800283a 	ret

000446d0 <alt_iic_isr_register>:
   446d0:	defff504 	addi	sp,sp,-44
   446d4:	dfc00a15 	stw	ra,40(sp)
   446d8:	df000915 	stw	fp,36(sp)
   446dc:	df000904 	addi	fp,sp,36
   446e0:	e13ffc15 	stw	r4,-16(fp)
   446e4:	e17ffd15 	stw	r5,-12(fp)
   446e8:	e1bffe15 	stw	r6,-8(fp)
   446ec:	e1ffff15 	stw	r7,-4(fp)
   446f0:	00bffa84 	movi	r2,-22
   446f4:	e0bff715 	stw	r2,-36(fp)
   446f8:	e0bffd17 	ldw	r2,-12(fp)
   446fc:	e0bff815 	stw	r2,-32(fp)
   44700:	e0bff817 	ldw	r2,-32(fp)
   44704:	10800808 	cmpgei	r2,r2,32
   44708:	1000271e 	bne	r2,zero,447a8 <alt_iic_isr_register+0xd8>
   4470c:	0005303a 	rdctl	r2,status
   44710:	e0bffa15 	stw	r2,-24(fp)
   44714:	e0fffa17 	ldw	r3,-24(fp)
   44718:	00bfff84 	movi	r2,-2
   4471c:	1884703a 	and	r2,r3,r2
   44720:	1001703a 	wrctl	status,r2
   44724:	e0bffa17 	ldw	r2,-24(fp)
   44728:	e0bff915 	stw	r2,-28(fp)
   4472c:	00c00174 	movhi	r3,5
   44730:	18e62604 	addi	r3,r3,-26472
   44734:	e0bff817 	ldw	r2,-32(fp)
   44738:	100490fa 	slli	r2,r2,3
   4473c:	1885883a 	add	r2,r3,r2
   44740:	e0fffe17 	ldw	r3,-8(fp)
   44744:	10c00015 	stw	r3,0(r2)
   44748:	00c00174 	movhi	r3,5
   4474c:	18e62604 	addi	r3,r3,-26472
   44750:	e0bff817 	ldw	r2,-32(fp)
   44754:	100490fa 	slli	r2,r2,3
   44758:	1885883a 	add	r2,r3,r2
   4475c:	10800104 	addi	r2,r2,4
   44760:	e0ffff17 	ldw	r3,-4(fp)
   44764:	10c00015 	stw	r3,0(r2)
   44768:	e0bffe17 	ldw	r2,-8(fp)
   4476c:	10000526 	beq	r2,zero,44784 <alt_iic_isr_register+0xb4>
   44770:	e0bff817 	ldw	r2,-32(fp)
   44774:	e13ffc17 	ldw	r4,-16(fp)
   44778:	100b883a 	mov	r5,r2
   4477c:	00445480 	call	44548 <alt_ic_irq_enable>
   44780:	00000406 	br	44794 <alt_iic_isr_register+0xc4>
   44784:	e0bff817 	ldw	r2,-32(fp)
   44788:	e13ffc17 	ldw	r4,-16(fp)
   4478c:	100b883a 	mov	r5,r2
   44790:	00445e40 	call	445e4 <alt_ic_irq_disable>
   44794:	e0bff715 	stw	r2,-36(fp)
   44798:	e0bff917 	ldw	r2,-28(fp)
   4479c:	e0bffb15 	stw	r2,-20(fp)
   447a0:	e0bffb17 	ldw	r2,-20(fp)
   447a4:	1001703a 	wrctl	status,r2
   447a8:	e0bff717 	ldw	r2,-36(fp)
   447ac:	e037883a 	mov	sp,fp
   447b0:	dfc00117 	ldw	ra,4(sp)
   447b4:	df000017 	ldw	fp,0(sp)
   447b8:	dec00204 	addi	sp,sp,8
   447bc:	f800283a 	ret

000447c0 <alt_get_errno>:
   447c0:	defffe04 	addi	sp,sp,-8
   447c4:	dfc00115 	stw	ra,4(sp)
   447c8:	df000015 	stw	fp,0(sp)
   447cc:	d839883a 	mov	fp,sp
   447d0:	00800174 	movhi	r2,5
   447d4:	10a3fc04 	addi	r2,r2,-28688
   447d8:	10800017 	ldw	r2,0(r2)
   447dc:	10000526 	beq	r2,zero,447f4 <alt_get_errno+0x34>
   447e0:	00800174 	movhi	r2,5
   447e4:	10a3fc04 	addi	r2,r2,-28688
   447e8:	10800017 	ldw	r2,0(r2)
   447ec:	103ee83a 	callr	r2
   447f0:	00000206 	br	447fc <alt_get_errno+0x3c>
   447f4:	00800174 	movhi	r2,5
   447f8:	10a40804 	addi	r2,r2,-28640
   447fc:	e037883a 	mov	sp,fp
   44800:	dfc00117 	ldw	ra,4(sp)
   44804:	df000017 	ldw	fp,0(sp)
   44808:	dec00204 	addi	sp,sp,8
   4480c:	f800283a 	ret

00044810 <isatty>:
   44810:	deffed04 	addi	sp,sp,-76
   44814:	dfc01215 	stw	ra,72(sp)
   44818:	df001115 	stw	fp,68(sp)
   4481c:	df001104 	addi	fp,sp,68
   44820:	e13fff15 	stw	r4,-4(fp)
   44824:	e0bfff17 	ldw	r2,-4(fp)
   44828:	10000716 	blt	r2,zero,44848 <isatty+0x38>
   4482c:	e13fff17 	ldw	r4,-4(fp)
   44830:	01400304 	movi	r5,12
   44834:	0041ce40 	call	41ce4 <__mulsi3>
   44838:	00c00134 	movhi	r3,4
   4483c:	18df4504 	addi	r3,r3,32020
   44840:	10c5883a 	add	r2,r2,r3
   44844:	00000106 	br	4484c <isatty+0x3c>
   44848:	0005883a 	mov	r2,zero
   4484c:	e0bfef15 	stw	r2,-68(fp)
   44850:	e0bfef17 	ldw	r2,-68(fp)
   44854:	10000e26 	beq	r2,zero,44890 <isatty+0x80>
   44858:	e0bfef17 	ldw	r2,-68(fp)
   4485c:	10800017 	ldw	r2,0(r2)
   44860:	10800817 	ldw	r2,32(r2)
   44864:	1000021e 	bne	r2,zero,44870 <isatty+0x60>
   44868:	00800044 	movi	r2,1
   4486c:	00000c06 	br	448a0 <isatty+0x90>
   44870:	e0bff004 	addi	r2,fp,-64
   44874:	e13fff17 	ldw	r4,-4(fp)
   44878:	100b883a 	mov	r5,r2
   4487c:	00444480 	call	44448 <fstat>
   44880:	e0bff117 	ldw	r2,-60(fp)
   44884:	10880020 	cmpeqi	r2,r2,8192
   44888:	10803fcc 	andi	r2,r2,255
   4488c:	00000406 	br	448a0 <isatty+0x90>
   44890:	00447c00 	call	447c0 <alt_get_errno>
   44894:	00c01444 	movi	r3,81
   44898:	10c00015 	stw	r3,0(r2)
   4489c:	0005883a 	mov	r2,zero
   448a0:	e037883a 	mov	sp,fp
   448a4:	dfc00117 	ldw	ra,4(sp)
   448a8:	df000017 	ldw	fp,0(sp)
   448ac:	dec00204 	addi	sp,sp,8
   448b0:	f800283a 	ret

000448b4 <alt_get_errno>:
   448b4:	defffe04 	addi	sp,sp,-8
   448b8:	dfc00115 	stw	ra,4(sp)
   448bc:	df000015 	stw	fp,0(sp)
   448c0:	d839883a 	mov	fp,sp
   448c4:	00800174 	movhi	r2,5
   448c8:	10a3fc04 	addi	r2,r2,-28688
   448cc:	10800017 	ldw	r2,0(r2)
   448d0:	10000526 	beq	r2,zero,448e8 <alt_get_errno+0x34>
   448d4:	00800174 	movhi	r2,5
   448d8:	10a3fc04 	addi	r2,r2,-28688
   448dc:	10800017 	ldw	r2,0(r2)
   448e0:	103ee83a 	callr	r2
   448e4:	00000206 	br	448f0 <alt_get_errno+0x3c>
   448e8:	00800174 	movhi	r2,5
   448ec:	10a40804 	addi	r2,r2,-28640
   448f0:	e037883a 	mov	sp,fp
   448f4:	dfc00117 	ldw	ra,4(sp)
   448f8:	df000017 	ldw	fp,0(sp)
   448fc:	dec00204 	addi	sp,sp,8
   44900:	f800283a 	ret

00044904 <lseek>:
   44904:	defff904 	addi	sp,sp,-28
   44908:	dfc00615 	stw	ra,24(sp)
   4490c:	df000515 	stw	fp,20(sp)
   44910:	df000504 	addi	fp,sp,20
   44914:	e13ffd15 	stw	r4,-12(fp)
   44918:	e17ffe15 	stw	r5,-8(fp)
   4491c:	e1bfff15 	stw	r6,-4(fp)
   44920:	e03ffb15 	stw	zero,-20(fp)
   44924:	e0bffd17 	ldw	r2,-12(fp)
   44928:	10000716 	blt	r2,zero,44948 <lseek+0x44>
   4492c:	e13ffd17 	ldw	r4,-12(fp)
   44930:	01400304 	movi	r5,12
   44934:	0041ce40 	call	41ce4 <__mulsi3>
   44938:	00c00134 	movhi	r3,4
   4493c:	18df4504 	addi	r3,r3,32020
   44940:	10c5883a 	add	r2,r2,r3
   44944:	00000106 	br	4494c <lseek+0x48>
   44948:	0005883a 	mov	r2,zero
   4494c:	e0bffc15 	stw	r2,-16(fp)
   44950:	e0bffc17 	ldw	r2,-16(fp)
   44954:	10001026 	beq	r2,zero,44998 <lseek+0x94>
   44958:	e0bffc17 	ldw	r2,-16(fp)
   4495c:	10800017 	ldw	r2,0(r2)
   44960:	10800717 	ldw	r2,28(r2)
   44964:	10000926 	beq	r2,zero,4498c <lseek+0x88>
   44968:	e0bffc17 	ldw	r2,-16(fp)
   4496c:	10800017 	ldw	r2,0(r2)
   44970:	10800717 	ldw	r2,28(r2)
   44974:	e13ffc17 	ldw	r4,-16(fp)
   44978:	e17ffe17 	ldw	r5,-8(fp)
   4497c:	e1bfff17 	ldw	r6,-4(fp)
   44980:	103ee83a 	callr	r2
   44984:	e0bffb15 	stw	r2,-20(fp)
   44988:	00000506 	br	449a0 <lseek+0x9c>
   4498c:	00bfde84 	movi	r2,-134
   44990:	e0bffb15 	stw	r2,-20(fp)
   44994:	00000206 	br	449a0 <lseek+0x9c>
   44998:	00bfebc4 	movi	r2,-81
   4499c:	e0bffb15 	stw	r2,-20(fp)
   449a0:	e0bffb17 	ldw	r2,-20(fp)
   449a4:	1000060e 	bge	r2,zero,449c0 <lseek+0xbc>
   449a8:	00448b40 	call	448b4 <alt_get_errno>
   449ac:	e0fffb17 	ldw	r3,-20(fp)
   449b0:	00c7c83a 	sub	r3,zero,r3
   449b4:	10c00015 	stw	r3,0(r2)
   449b8:	00bfffc4 	movi	r2,-1
   449bc:	e0bffb15 	stw	r2,-20(fp)
   449c0:	e0bffb17 	ldw	r2,-20(fp)
   449c4:	e037883a 	mov	sp,fp
   449c8:	dfc00117 	ldw	ra,4(sp)
   449cc:	df000017 	ldw	fp,0(sp)
   449d0:	dec00204 	addi	sp,sp,8
   449d4:	f800283a 	ret

000449d8 <alt_main>:
   449d8:	defffe04 	addi	sp,sp,-8
   449dc:	dfc00115 	stw	ra,4(sp)
   449e0:	df000015 	stw	fp,0(sp)
   449e4:	d839883a 	mov	fp,sp
   449e8:	0009883a 	mov	r4,zero
   449ec:	00451080 	call	45108 <alt_irq_init>
   449f0:	0001883a 	nop
   449f4:	004513c0 	call	4513c <alt_sys_init>
   449f8:	01000134 	movhi	r4,4
   449fc:	211d2e04 	addi	r4,r4,29880
   44a00:	01400134 	movhi	r5,4
   44a04:	295d2e04 	addi	r5,r5,29880
   44a08:	01800134 	movhi	r6,4
   44a0c:	319d2e04 	addi	r6,r6,29880
   44a10:	004694c0 	call	4694c <alt_io_redirect>
   44a14:	d1201c17 	ldw	r4,-32656(gp)
   44a18:	d0e01d17 	ldw	r3,-32652(gp)
   44a1c:	d0a01e17 	ldw	r2,-32648(gp)
   44a20:	180b883a 	mov	r5,r3
   44a24:	100d883a 	mov	r6,r2
   44a28:	00410080 	call	41008 <main>
   44a2c:	e037883a 	mov	sp,fp
   44a30:	dfc00117 	ldw	ra,4(sp)
   44a34:	df000017 	ldw	fp,0(sp)
   44a38:	dec00204 	addi	sp,sp,8
   44a3c:	f800283a 	ret

00044a40 <__malloc_lock>:
   44a40:	defffe04 	addi	sp,sp,-8
   44a44:	df000115 	stw	fp,4(sp)
   44a48:	df000104 	addi	fp,sp,4
   44a4c:	e13fff15 	stw	r4,-4(fp)
   44a50:	e037883a 	mov	sp,fp
   44a54:	df000017 	ldw	fp,0(sp)
   44a58:	dec00104 	addi	sp,sp,4
   44a5c:	f800283a 	ret

00044a60 <__malloc_unlock>:
   44a60:	defffe04 	addi	sp,sp,-8
   44a64:	df000115 	stw	fp,4(sp)
   44a68:	df000104 	addi	fp,sp,4
   44a6c:	e13fff15 	stw	r4,-4(fp)
   44a70:	e037883a 	mov	sp,fp
   44a74:	df000017 	ldw	fp,0(sp)
   44a78:	dec00104 	addi	sp,sp,4
   44a7c:	f800283a 	ret

00044a80 <alt_printf>:
   44a80:	defff204 	addi	sp,sp,-56
   44a84:	dfc00a15 	stw	ra,40(sp)
   44a88:	df000915 	stw	fp,36(sp)
   44a8c:	df000904 	addi	fp,sp,36
   44a90:	e1400215 	stw	r5,8(fp)
   44a94:	e1800315 	stw	r6,12(fp)
   44a98:	e1c00415 	stw	r7,16(fp)
   44a9c:	e13fff15 	stw	r4,-4(fp)
   44aa0:	e0800204 	addi	r2,fp,8
   44aa4:	e0bffe15 	stw	r2,-8(fp)
   44aa8:	e0bfff17 	ldw	r2,-4(fp)
   44aac:	e0bff715 	stw	r2,-36(fp)
   44ab0:	00007106 	br	44c78 <alt_printf+0x1f8>
   44ab4:	e0bff807 	ldb	r2,-32(fp)
   44ab8:	10800960 	cmpeqi	r2,r2,37
   44abc:	1000041e 	bne	r2,zero,44ad0 <alt_printf+0x50>
   44ac0:	e0bff807 	ldb	r2,-32(fp)
   44ac4:	1009883a 	mov	r4,r2
   44ac8:	0044ca80 	call	44ca8 <alt_putchar>
   44acc:	00006a06 	br	44c78 <alt_printf+0x1f8>
   44ad0:	e0bff717 	ldw	r2,-36(fp)
   44ad4:	10c00044 	addi	r3,r2,1
   44ad8:	e0fff715 	stw	r3,-36(fp)
   44adc:	10800003 	ldbu	r2,0(r2)
   44ae0:	e0bff805 	stb	r2,-32(fp)
   44ae4:	e0bff807 	ldb	r2,-32(fp)
   44ae8:	10006226 	beq	r2,zero,44c74 <alt_printf+0x1f4>
   44aec:	e0bff807 	ldb	r2,-32(fp)
   44af0:	10800958 	cmpnei	r2,r2,37
   44af4:	1000041e 	bne	r2,zero,44b08 <alt_printf+0x88>
   44af8:	e0bff807 	ldb	r2,-32(fp)
   44afc:	1009883a 	mov	r4,r2
   44b00:	0044ca80 	call	44ca8 <alt_putchar>
   44b04:	00005c06 	br	44c78 <alt_printf+0x1f8>
   44b08:	e0bff807 	ldb	r2,-32(fp)
   44b0c:	108018d8 	cmpnei	r2,r2,99
   44b10:	1000081e 	bne	r2,zero,44b34 <alt_printf+0xb4>
   44b14:	e0bffe17 	ldw	r2,-8(fp)
   44b18:	10c00104 	addi	r3,r2,4
   44b1c:	e0fffe15 	stw	r3,-8(fp)
   44b20:	10800017 	ldw	r2,0(r2)
   44b24:	e0bffd15 	stw	r2,-12(fp)
   44b28:	e13ffd17 	ldw	r4,-12(fp)
   44b2c:	0044ca80 	call	44ca8 <alt_putchar>
   44b30:	00005106 	br	44c78 <alt_printf+0x1f8>
   44b34:	e0bff807 	ldb	r2,-32(fp)
   44b38:	10801e18 	cmpnei	r2,r2,120
   44b3c:	1000341e 	bne	r2,zero,44c10 <alt_printf+0x190>
   44b40:	e0bffe17 	ldw	r2,-8(fp)
   44b44:	10c00104 	addi	r3,r2,4
   44b48:	e0fffe15 	stw	r3,-8(fp)
   44b4c:	10800017 	ldw	r2,0(r2)
   44b50:	e0bffb15 	stw	r2,-20(fp)
   44b54:	e0bffb17 	ldw	r2,-20(fp)
   44b58:	1000031e 	bne	r2,zero,44b68 <alt_printf+0xe8>
   44b5c:	01000c04 	movi	r4,48
   44b60:	0044ca80 	call	44ca8 <alt_putchar>
   44b64:	00004406 	br	44c78 <alt_printf+0x1f8>
   44b68:	00800704 	movi	r2,28
   44b6c:	e0bff915 	stw	r2,-28(fp)
   44b70:	00000306 	br	44b80 <alt_printf+0x100>
   44b74:	e0bff917 	ldw	r2,-28(fp)
   44b78:	10bfff04 	addi	r2,r2,-4
   44b7c:	e0bff915 	stw	r2,-28(fp)
   44b80:	00c003c4 	movi	r3,15
   44b84:	e0bff917 	ldw	r2,-28(fp)
   44b88:	1884983a 	sll	r2,r3,r2
   44b8c:	1007883a 	mov	r3,r2
   44b90:	e0bffb17 	ldw	r2,-20(fp)
   44b94:	1884703a 	and	r2,r3,r2
   44b98:	103ff626 	beq	r2,zero,44b74 <_gp+0xffff3bbc>
   44b9c:	00001906 	br	44c04 <alt_printf+0x184>
   44ba0:	00c003c4 	movi	r3,15
   44ba4:	e0bff917 	ldw	r2,-28(fp)
   44ba8:	1884983a 	sll	r2,r3,r2
   44bac:	1007883a 	mov	r3,r2
   44bb0:	e0bffb17 	ldw	r2,-20(fp)
   44bb4:	1886703a 	and	r3,r3,r2
   44bb8:	e0bff917 	ldw	r2,-28(fp)
   44bbc:	1884d83a 	srl	r2,r3,r2
   44bc0:	e0bffc15 	stw	r2,-16(fp)
   44bc4:	e0bffc17 	ldw	r2,-16(fp)
   44bc8:	108002a8 	cmpgeui	r2,r2,10
   44bcc:	1000041e 	bne	r2,zero,44be0 <alt_printf+0x160>
   44bd0:	e0bffc17 	ldw	r2,-16(fp)
   44bd4:	10800c04 	addi	r2,r2,48
   44bd8:	e0bff805 	stb	r2,-32(fp)
   44bdc:	00000306 	br	44bec <alt_printf+0x16c>
   44be0:	e0bffc17 	ldw	r2,-16(fp)
   44be4:	108015c4 	addi	r2,r2,87
   44be8:	e0bff805 	stb	r2,-32(fp)
   44bec:	e0bff807 	ldb	r2,-32(fp)
   44bf0:	1009883a 	mov	r4,r2
   44bf4:	0044ca80 	call	44ca8 <alt_putchar>
   44bf8:	e0bff917 	ldw	r2,-28(fp)
   44bfc:	10bfff04 	addi	r2,r2,-4
   44c00:	e0bff915 	stw	r2,-28(fp)
   44c04:	e0bff917 	ldw	r2,-28(fp)
   44c08:	103fe50e 	bge	r2,zero,44ba0 <_gp+0xffff3be8>
   44c0c:	00001a06 	br	44c78 <alt_printf+0x1f8>
   44c10:	e0bff807 	ldb	r2,-32(fp)
   44c14:	10801cd8 	cmpnei	r2,r2,115
   44c18:	1000151e 	bne	r2,zero,44c70 <alt_printf+0x1f0>
   44c1c:	e0bffe17 	ldw	r2,-8(fp)
   44c20:	10c00104 	addi	r3,r2,4
   44c24:	e0fffe15 	stw	r3,-8(fp)
   44c28:	10800017 	ldw	r2,0(r2)
   44c2c:	e0bffa15 	stw	r2,-24(fp)
   44c30:	00000906 	br	44c58 <alt_printf+0x1d8>
   44c34:	e0bffa17 	ldw	r2,-24(fp)
   44c38:	10c00044 	addi	r3,r2,1
   44c3c:	e0fffa15 	stw	r3,-24(fp)
   44c40:	10800003 	ldbu	r2,0(r2)
   44c44:	10803fcc 	andi	r2,r2,255
   44c48:	1080201c 	xori	r2,r2,128
   44c4c:	10bfe004 	addi	r2,r2,-128
   44c50:	1009883a 	mov	r4,r2
   44c54:	0044ca80 	call	44ca8 <alt_putchar>
   44c58:	e0bffa17 	ldw	r2,-24(fp)
   44c5c:	10800003 	ldbu	r2,0(r2)
   44c60:	10803fcc 	andi	r2,r2,255
   44c64:	1080201c 	xori	r2,r2,128
   44c68:	10bfe004 	addi	r2,r2,-128
   44c6c:	103ff11e 	bne	r2,zero,44c34 <_gp+0xffff3c7c>
   44c70:	00000106 	br	44c78 <alt_printf+0x1f8>
   44c74:	00000706 	br	44c94 <alt_printf+0x214>
   44c78:	e0bff717 	ldw	r2,-36(fp)
   44c7c:	10c00044 	addi	r3,r2,1
   44c80:	e0fff715 	stw	r3,-36(fp)
   44c84:	10800003 	ldbu	r2,0(r2)
   44c88:	e0bff805 	stb	r2,-32(fp)
   44c8c:	e0bff807 	ldb	r2,-32(fp)
   44c90:	103f881e 	bne	r2,zero,44ab4 <_gp+0xffff3afc>
   44c94:	e037883a 	mov	sp,fp
   44c98:	dfc00117 	ldw	ra,4(sp)
   44c9c:	df000017 	ldw	fp,0(sp)
   44ca0:	dec00504 	addi	sp,sp,20
   44ca4:	f800283a 	ret

00044ca8 <alt_putchar>:
   44ca8:	defffd04 	addi	sp,sp,-12
   44cac:	dfc00215 	stw	ra,8(sp)
   44cb0:	df000115 	stw	fp,4(sp)
   44cb4:	df000104 	addi	fp,sp,4
   44cb8:	e13fff15 	stw	r4,-4(fp)
   44cbc:	00800174 	movhi	r2,5
   44cc0:	10a3f404 	addi	r2,r2,-28720
   44cc4:	10800017 	ldw	r2,0(r2)
   44cc8:	10800217 	ldw	r2,8(r2)
   44ccc:	e13fff17 	ldw	r4,-4(fp)
   44cd0:	100b883a 	mov	r5,r2
   44cd4:	00424f40 	call	424f4 <putc>
   44cd8:	e037883a 	mov	sp,fp
   44cdc:	dfc00117 	ldw	ra,4(sp)
   44ce0:	df000017 	ldw	fp,0(sp)
   44ce4:	dec00204 	addi	sp,sp,8
   44ce8:	f800283a 	ret

00044cec <alt_get_errno>:
   44cec:	defffe04 	addi	sp,sp,-8
   44cf0:	dfc00115 	stw	ra,4(sp)
   44cf4:	df000015 	stw	fp,0(sp)
   44cf8:	d839883a 	mov	fp,sp
   44cfc:	00800174 	movhi	r2,5
   44d00:	10a3fc04 	addi	r2,r2,-28688
   44d04:	10800017 	ldw	r2,0(r2)
   44d08:	10000526 	beq	r2,zero,44d20 <alt_get_errno+0x34>
   44d0c:	00800174 	movhi	r2,5
   44d10:	10a3fc04 	addi	r2,r2,-28688
   44d14:	10800017 	ldw	r2,0(r2)
   44d18:	103ee83a 	callr	r2
   44d1c:	00000206 	br	44d28 <alt_get_errno+0x3c>
   44d20:	00800174 	movhi	r2,5
   44d24:	10a40804 	addi	r2,r2,-28640
   44d28:	e037883a 	mov	sp,fp
   44d2c:	dfc00117 	ldw	ra,4(sp)
   44d30:	df000017 	ldw	fp,0(sp)
   44d34:	dec00204 	addi	sp,sp,8
   44d38:	f800283a 	ret

00044d3c <read>:
   44d3c:	defff904 	addi	sp,sp,-28
   44d40:	dfc00615 	stw	ra,24(sp)
   44d44:	df000515 	stw	fp,20(sp)
   44d48:	df000504 	addi	fp,sp,20
   44d4c:	e13ffd15 	stw	r4,-12(fp)
   44d50:	e17ffe15 	stw	r5,-8(fp)
   44d54:	e1bfff15 	stw	r6,-4(fp)
   44d58:	e0bffd17 	ldw	r2,-12(fp)
   44d5c:	10000716 	blt	r2,zero,44d7c <read+0x40>
   44d60:	e13ffd17 	ldw	r4,-12(fp)
   44d64:	01400304 	movi	r5,12
   44d68:	0041ce40 	call	41ce4 <__mulsi3>
   44d6c:	00c00134 	movhi	r3,4
   44d70:	18df4504 	addi	r3,r3,32020
   44d74:	10c5883a 	add	r2,r2,r3
   44d78:	00000106 	br	44d80 <read+0x44>
   44d7c:	0005883a 	mov	r2,zero
   44d80:	e0bffb15 	stw	r2,-20(fp)
   44d84:	e0bffb17 	ldw	r2,-20(fp)
   44d88:	10002026 	beq	r2,zero,44e0c <read+0xd0>
   44d8c:	e0bffb17 	ldw	r2,-20(fp)
   44d90:	10800217 	ldw	r2,8(r2)
   44d94:	108000cc 	andi	r2,r2,3
   44d98:	10800060 	cmpeqi	r2,r2,1
   44d9c:	1000171e 	bne	r2,zero,44dfc <read+0xc0>
   44da0:	e0bffb17 	ldw	r2,-20(fp)
   44da4:	10800017 	ldw	r2,0(r2)
   44da8:	10800517 	ldw	r2,20(r2)
   44dac:	10001326 	beq	r2,zero,44dfc <read+0xc0>
   44db0:	e0bffb17 	ldw	r2,-20(fp)
   44db4:	10800017 	ldw	r2,0(r2)
   44db8:	10c00517 	ldw	r3,20(r2)
   44dbc:	e0bfff17 	ldw	r2,-4(fp)
   44dc0:	e13ffb17 	ldw	r4,-20(fp)
   44dc4:	e17ffe17 	ldw	r5,-8(fp)
   44dc8:	100d883a 	mov	r6,r2
   44dcc:	183ee83a 	callr	r3
   44dd0:	e0bffc15 	stw	r2,-16(fp)
   44dd4:	e0bffc17 	ldw	r2,-16(fp)
   44dd8:	1000060e 	bge	r2,zero,44df4 <read+0xb8>
   44ddc:	0044cec0 	call	44cec <alt_get_errno>
   44de0:	e0fffc17 	ldw	r3,-16(fp)
   44de4:	00c7c83a 	sub	r3,zero,r3
   44de8:	10c00015 	stw	r3,0(r2)
   44dec:	00bfffc4 	movi	r2,-1
   44df0:	00000a06 	br	44e1c <read+0xe0>
   44df4:	e0bffc17 	ldw	r2,-16(fp)
   44df8:	00000806 	br	44e1c <read+0xe0>
   44dfc:	0044cec0 	call	44cec <alt_get_errno>
   44e00:	00c00344 	movi	r3,13
   44e04:	10c00015 	stw	r3,0(r2)
   44e08:	00000306 	br	44e18 <read+0xdc>
   44e0c:	0044cec0 	call	44cec <alt_get_errno>
   44e10:	00c01444 	movi	r3,81
   44e14:	10c00015 	stw	r3,0(r2)
   44e18:	00bfffc4 	movi	r2,-1
   44e1c:	e037883a 	mov	sp,fp
   44e20:	dfc00117 	ldw	ra,4(sp)
   44e24:	df000017 	ldw	fp,0(sp)
   44e28:	dec00204 	addi	sp,sp,8
   44e2c:	f800283a 	ret

00044e30 <alt_release_fd>:
   44e30:	defffc04 	addi	sp,sp,-16
   44e34:	dfc00315 	stw	ra,12(sp)
   44e38:	df000215 	stw	fp,8(sp)
   44e3c:	dc000115 	stw	r16,4(sp)
   44e40:	df000104 	addi	fp,sp,4
   44e44:	e13fff15 	stw	r4,-4(fp)
   44e48:	e0bfff17 	ldw	r2,-4(fp)
   44e4c:	108000d0 	cmplti	r2,r2,3
   44e50:	1000111e 	bne	r2,zero,44e98 <alt_release_fd+0x68>
   44e54:	04000134 	movhi	r16,4
   44e58:	841f4504 	addi	r16,r16,32020
   44e5c:	e0bfff17 	ldw	r2,-4(fp)
   44e60:	1009883a 	mov	r4,r2
   44e64:	01400304 	movi	r5,12
   44e68:	0041ce40 	call	41ce4 <__mulsi3>
   44e6c:	8085883a 	add	r2,r16,r2
   44e70:	10800204 	addi	r2,r2,8
   44e74:	10000015 	stw	zero,0(r2)
   44e78:	04000134 	movhi	r16,4
   44e7c:	841f4504 	addi	r16,r16,32020
   44e80:	e0bfff17 	ldw	r2,-4(fp)
   44e84:	1009883a 	mov	r4,r2
   44e88:	01400304 	movi	r5,12
   44e8c:	0041ce40 	call	41ce4 <__mulsi3>
   44e90:	8085883a 	add	r2,r16,r2
   44e94:	10000015 	stw	zero,0(r2)
   44e98:	e037883a 	mov	sp,fp
   44e9c:	dfc00217 	ldw	ra,8(sp)
   44ea0:	df000117 	ldw	fp,4(sp)
   44ea4:	dc000017 	ldw	r16,0(sp)
   44ea8:	dec00304 	addi	sp,sp,12
   44eac:	f800283a 	ret

00044eb0 <sbrk>:
   44eb0:	defff904 	addi	sp,sp,-28
   44eb4:	df000615 	stw	fp,24(sp)
   44eb8:	df000604 	addi	fp,sp,24
   44ebc:	e13fff15 	stw	r4,-4(fp)
   44ec0:	0005303a 	rdctl	r2,status
   44ec4:	e0bffc15 	stw	r2,-16(fp)
   44ec8:	e0fffc17 	ldw	r3,-16(fp)
   44ecc:	00bfff84 	movi	r2,-2
   44ed0:	1884703a 	and	r2,r3,r2
   44ed4:	1001703a 	wrctl	status,r2
   44ed8:	e0bffc17 	ldw	r2,-16(fp)
   44edc:	e0bffa15 	stw	r2,-24(fp)
   44ee0:	d0a01017 	ldw	r2,-32704(gp)
   44ee4:	10c000c4 	addi	r3,r2,3
   44ee8:	00bfff04 	movi	r2,-4
   44eec:	1884703a 	and	r2,r3,r2
   44ef0:	d0a01015 	stw	r2,-32704(gp)
   44ef4:	d0e01017 	ldw	r3,-32704(gp)
   44ef8:	e0bfff17 	ldw	r2,-4(fp)
   44efc:	1885883a 	add	r2,r3,r2
   44f00:	00c00174 	movhi	r3,5
   44f04:	18e80004 	addi	r3,r3,-24576
   44f08:	1880062e 	bgeu	r3,r2,44f24 <sbrk+0x74>
   44f0c:	e0bffa17 	ldw	r2,-24(fp)
   44f10:	e0bffd15 	stw	r2,-12(fp)
   44f14:	e0bffd17 	ldw	r2,-12(fp)
   44f18:	1001703a 	wrctl	status,r2
   44f1c:	00bfffc4 	movi	r2,-1
   44f20:	00000b06 	br	44f50 <sbrk+0xa0>
   44f24:	d0a01017 	ldw	r2,-32704(gp)
   44f28:	e0bffb15 	stw	r2,-20(fp)
   44f2c:	d0e01017 	ldw	r3,-32704(gp)
   44f30:	e0bfff17 	ldw	r2,-4(fp)
   44f34:	1885883a 	add	r2,r3,r2
   44f38:	d0a01015 	stw	r2,-32704(gp)
   44f3c:	e0bffa17 	ldw	r2,-24(fp)
   44f40:	e0bffe15 	stw	r2,-8(fp)
   44f44:	e0bffe17 	ldw	r2,-8(fp)
   44f48:	1001703a 	wrctl	status,r2
   44f4c:	e0bffb17 	ldw	r2,-20(fp)
   44f50:	e037883a 	mov	sp,fp
   44f54:	df000017 	ldw	fp,0(sp)
   44f58:	dec00104 	addi	sp,sp,4
   44f5c:	f800283a 	ret

00044f60 <usleep>:
   44f60:	defffd04 	addi	sp,sp,-12
   44f64:	dfc00215 	stw	ra,8(sp)
   44f68:	df000115 	stw	fp,4(sp)
   44f6c:	df000104 	addi	fp,sp,4
   44f70:	e13fff15 	stw	r4,-4(fp)
   44f74:	e13fff17 	ldw	r4,-4(fp)
   44f78:	00466240 	call	46624 <alt_busy_sleep>
   44f7c:	e037883a 	mov	sp,fp
   44f80:	dfc00117 	ldw	ra,4(sp)
   44f84:	df000017 	ldw	fp,0(sp)
   44f88:	dec00204 	addi	sp,sp,8
   44f8c:	f800283a 	ret

00044f90 <alt_get_errno>:
   44f90:	defffe04 	addi	sp,sp,-8
   44f94:	dfc00115 	stw	ra,4(sp)
   44f98:	df000015 	stw	fp,0(sp)
   44f9c:	d839883a 	mov	fp,sp
   44fa0:	00800174 	movhi	r2,5
   44fa4:	10a3fc04 	addi	r2,r2,-28688
   44fa8:	10800017 	ldw	r2,0(r2)
   44fac:	10000526 	beq	r2,zero,44fc4 <alt_get_errno+0x34>
   44fb0:	00800174 	movhi	r2,5
   44fb4:	10a3fc04 	addi	r2,r2,-28688
   44fb8:	10800017 	ldw	r2,0(r2)
   44fbc:	103ee83a 	callr	r2
   44fc0:	00000206 	br	44fcc <alt_get_errno+0x3c>
   44fc4:	00800174 	movhi	r2,5
   44fc8:	10a40804 	addi	r2,r2,-28640
   44fcc:	e037883a 	mov	sp,fp
   44fd0:	dfc00117 	ldw	ra,4(sp)
   44fd4:	df000017 	ldw	fp,0(sp)
   44fd8:	dec00204 	addi	sp,sp,8
   44fdc:	f800283a 	ret

00044fe0 <write>:
   44fe0:	defff904 	addi	sp,sp,-28
   44fe4:	dfc00615 	stw	ra,24(sp)
   44fe8:	df000515 	stw	fp,20(sp)
   44fec:	df000504 	addi	fp,sp,20
   44ff0:	e13ffd15 	stw	r4,-12(fp)
   44ff4:	e17ffe15 	stw	r5,-8(fp)
   44ff8:	e1bfff15 	stw	r6,-4(fp)
   44ffc:	e0bffd17 	ldw	r2,-12(fp)
   45000:	10000716 	blt	r2,zero,45020 <write+0x40>
   45004:	e13ffd17 	ldw	r4,-12(fp)
   45008:	01400304 	movi	r5,12
   4500c:	0041ce40 	call	41ce4 <__mulsi3>
   45010:	00c00134 	movhi	r3,4
   45014:	18df4504 	addi	r3,r3,32020
   45018:	10c5883a 	add	r2,r2,r3
   4501c:	00000106 	br	45024 <write+0x44>
   45020:	0005883a 	mov	r2,zero
   45024:	e0bffb15 	stw	r2,-20(fp)
   45028:	e0bffb17 	ldw	r2,-20(fp)
   4502c:	10001f26 	beq	r2,zero,450ac <write+0xcc>
   45030:	e0bffb17 	ldw	r2,-20(fp)
   45034:	10800217 	ldw	r2,8(r2)
   45038:	108000cc 	andi	r2,r2,3
   4503c:	10001726 	beq	r2,zero,4509c <write+0xbc>
   45040:	e0bffb17 	ldw	r2,-20(fp)
   45044:	10800017 	ldw	r2,0(r2)
   45048:	10800617 	ldw	r2,24(r2)
   4504c:	10001326 	beq	r2,zero,4509c <write+0xbc>
   45050:	e0bffb17 	ldw	r2,-20(fp)
   45054:	10800017 	ldw	r2,0(r2)
   45058:	10c00617 	ldw	r3,24(r2)
   4505c:	e0bfff17 	ldw	r2,-4(fp)
   45060:	e13ffb17 	ldw	r4,-20(fp)
   45064:	e17ffe17 	ldw	r5,-8(fp)
   45068:	100d883a 	mov	r6,r2
   4506c:	183ee83a 	callr	r3
   45070:	e0bffc15 	stw	r2,-16(fp)
   45074:	e0bffc17 	ldw	r2,-16(fp)
   45078:	1000060e 	bge	r2,zero,45094 <write+0xb4>
   4507c:	0044f900 	call	44f90 <alt_get_errno>
   45080:	e0fffc17 	ldw	r3,-16(fp)
   45084:	00c7c83a 	sub	r3,zero,r3
   45088:	10c00015 	stw	r3,0(r2)
   4508c:	00bfffc4 	movi	r2,-1
   45090:	00000a06 	br	450bc <write+0xdc>
   45094:	e0bffc17 	ldw	r2,-16(fp)
   45098:	00000806 	br	450bc <write+0xdc>
   4509c:	0044f900 	call	44f90 <alt_get_errno>
   450a0:	00c00344 	movi	r3,13
   450a4:	10c00015 	stw	r3,0(r2)
   450a8:	00000306 	br	450b8 <write+0xd8>
   450ac:	0044f900 	call	44f90 <alt_get_errno>
   450b0:	00c01444 	movi	r3,81
   450b4:	10c00015 	stw	r3,0(r2)
   450b8:	00bfffc4 	movi	r2,-1
   450bc:	e037883a 	mov	sp,fp
   450c0:	dfc00117 	ldw	ra,4(sp)
   450c4:	df000017 	ldw	fp,0(sp)
   450c8:	dec00204 	addi	sp,sp,8
   450cc:	f800283a 	ret

000450d0 <alt_dev_reg>:
   450d0:	defffd04 	addi	sp,sp,-12
   450d4:	dfc00215 	stw	ra,8(sp)
   450d8:	df000115 	stw	fp,4(sp)
   450dc:	df000104 	addi	fp,sp,4
   450e0:	e13fff15 	stw	r4,-4(fp)
   450e4:	e13fff17 	ldw	r4,-4(fp)
   450e8:	01400174 	movhi	r5,5
   450ec:	2963f904 	addi	r5,r5,-28700
   450f0:	00467c80 	call	467c8 <alt_dev_llist_insert>
   450f4:	e037883a 	mov	sp,fp
   450f8:	dfc00117 	ldw	ra,4(sp)
   450fc:	df000017 	ldw	fp,0(sp)
   45100:	dec00204 	addi	sp,sp,8
   45104:	f800283a 	ret

00045108 <alt_irq_init>:
   45108:	defffd04 	addi	sp,sp,-12
   4510c:	dfc00215 	stw	ra,8(sp)
   45110:	df000115 	stw	fp,4(sp)
   45114:	df000104 	addi	fp,sp,4
   45118:	e13fff15 	stw	r4,-4(fp)
   4511c:	0046df80 	call	46df8 <altera_nios2_qsys_irq_init>
   45120:	00800044 	movi	r2,1
   45124:	1001703a 	wrctl	status,r2
   45128:	e037883a 	mov	sp,fp
   4512c:	dfc00117 	ldw	ra,4(sp)
   45130:	df000017 	ldw	fp,0(sp)
   45134:	dec00204 	addi	sp,sp,8
   45138:	f800283a 	ret

0004513c <alt_sys_init>:
   4513c:	defffe04 	addi	sp,sp,-8
   45140:	dfc00115 	stw	ra,4(sp)
   45144:	df000015 	stw	fp,0(sp)
   45148:	d839883a 	mov	fp,sp
   4514c:	01000134 	movhi	r4,4
   45150:	211faf04 	addi	r4,r4,32444
   45154:	000b883a 	mov	r5,zero
   45158:	000d883a 	mov	r6,zero
   4515c:	00453080 	call	45308 <altera_avalon_jtag_uart_init>
   45160:	01000134 	movhi	r4,4
   45164:	211fa504 	addi	r4,r4,32404
   45168:	00450d00 	call	450d0 <alt_dev_reg>
   4516c:	0001883a 	nop
   45170:	01000174 	movhi	r4,5
   45174:	2123c704 	addi	r4,r4,-28900
   45178:	000b883a 	mov	r5,zero
   4517c:	01800044 	movi	r6,1
   45180:	0045d140 	call	45d14 <altera_avalon_uart_init>
   45184:	01000174 	movhi	r4,5
   45188:	2123bd04 	addi	r4,r4,-28940
   4518c:	00450d00 	call	450d0 <alt_dev_reg>
   45190:	e037883a 	mov	sp,fp
   45194:	dfc00117 	ldw	ra,4(sp)
   45198:	df000017 	ldw	fp,0(sp)
   4519c:	dec00204 	addi	sp,sp,8
   451a0:	f800283a 	ret

000451a4 <altera_avalon_jtag_uart_read_fd>:
   451a4:	defffa04 	addi	sp,sp,-24
   451a8:	dfc00515 	stw	ra,20(sp)
   451ac:	df000415 	stw	fp,16(sp)
   451b0:	df000404 	addi	fp,sp,16
   451b4:	e13ffd15 	stw	r4,-12(fp)
   451b8:	e17ffe15 	stw	r5,-8(fp)
   451bc:	e1bfff15 	stw	r6,-4(fp)
   451c0:	e0bffd17 	ldw	r2,-12(fp)
   451c4:	10800017 	ldw	r2,0(r2)
   451c8:	e0bffc15 	stw	r2,-16(fp)
   451cc:	e0bffc17 	ldw	r2,-16(fp)
   451d0:	10c00a04 	addi	r3,r2,40
   451d4:	e0bffd17 	ldw	r2,-12(fp)
   451d8:	10800217 	ldw	r2,8(r2)
   451dc:	1809883a 	mov	r4,r3
   451e0:	e17ffe17 	ldw	r5,-8(fp)
   451e4:	e1bfff17 	ldw	r6,-4(fp)
   451e8:	100f883a 	mov	r7,r2
   451ec:	00457cc0 	call	457cc <altera_avalon_jtag_uart_read>
   451f0:	e037883a 	mov	sp,fp
   451f4:	dfc00117 	ldw	ra,4(sp)
   451f8:	df000017 	ldw	fp,0(sp)
   451fc:	dec00204 	addi	sp,sp,8
   45200:	f800283a 	ret

00045204 <altera_avalon_jtag_uart_write_fd>:
   45204:	defffa04 	addi	sp,sp,-24
   45208:	dfc00515 	stw	ra,20(sp)
   4520c:	df000415 	stw	fp,16(sp)
   45210:	df000404 	addi	fp,sp,16
   45214:	e13ffd15 	stw	r4,-12(fp)
   45218:	e17ffe15 	stw	r5,-8(fp)
   4521c:	e1bfff15 	stw	r6,-4(fp)
   45220:	e0bffd17 	ldw	r2,-12(fp)
   45224:	10800017 	ldw	r2,0(r2)
   45228:	e0bffc15 	stw	r2,-16(fp)
   4522c:	e0bffc17 	ldw	r2,-16(fp)
   45230:	10c00a04 	addi	r3,r2,40
   45234:	e0bffd17 	ldw	r2,-12(fp)
   45238:	10800217 	ldw	r2,8(r2)
   4523c:	1809883a 	mov	r4,r3
   45240:	e17ffe17 	ldw	r5,-8(fp)
   45244:	e1bfff17 	ldw	r6,-4(fp)
   45248:	100f883a 	mov	r7,r2
   4524c:	00459e40 	call	459e4 <altera_avalon_jtag_uart_write>
   45250:	e037883a 	mov	sp,fp
   45254:	dfc00117 	ldw	ra,4(sp)
   45258:	df000017 	ldw	fp,0(sp)
   4525c:	dec00204 	addi	sp,sp,8
   45260:	f800283a 	ret

00045264 <altera_avalon_jtag_uart_close_fd>:
   45264:	defffc04 	addi	sp,sp,-16
   45268:	dfc00315 	stw	ra,12(sp)
   4526c:	df000215 	stw	fp,8(sp)
   45270:	df000204 	addi	fp,sp,8
   45274:	e13fff15 	stw	r4,-4(fp)
   45278:	e0bfff17 	ldw	r2,-4(fp)
   4527c:	10800017 	ldw	r2,0(r2)
   45280:	e0bffe15 	stw	r2,-8(fp)
   45284:	e0bffe17 	ldw	r2,-8(fp)
   45288:	10c00a04 	addi	r3,r2,40
   4528c:	e0bfff17 	ldw	r2,-4(fp)
   45290:	10800217 	ldw	r2,8(r2)
   45294:	1809883a 	mov	r4,r3
   45298:	100b883a 	mov	r5,r2
   4529c:	00456700 	call	45670 <altera_avalon_jtag_uart_close>
   452a0:	e037883a 	mov	sp,fp
   452a4:	dfc00117 	ldw	ra,4(sp)
   452a8:	df000017 	ldw	fp,0(sp)
   452ac:	dec00204 	addi	sp,sp,8
   452b0:	f800283a 	ret

000452b4 <altera_avalon_jtag_uart_ioctl_fd>:
   452b4:	defffa04 	addi	sp,sp,-24
   452b8:	dfc00515 	stw	ra,20(sp)
   452bc:	df000415 	stw	fp,16(sp)
   452c0:	df000404 	addi	fp,sp,16
   452c4:	e13ffd15 	stw	r4,-12(fp)
   452c8:	e17ffe15 	stw	r5,-8(fp)
   452cc:	e1bfff15 	stw	r6,-4(fp)
   452d0:	e0bffd17 	ldw	r2,-12(fp)
   452d4:	10800017 	ldw	r2,0(r2)
   452d8:	e0bffc15 	stw	r2,-16(fp)
   452dc:	e0bffc17 	ldw	r2,-16(fp)
   452e0:	10800a04 	addi	r2,r2,40
   452e4:	1009883a 	mov	r4,r2
   452e8:	e17ffe17 	ldw	r5,-8(fp)
   452ec:	e1bfff17 	ldw	r6,-4(fp)
   452f0:	00456d80 	call	456d8 <altera_avalon_jtag_uart_ioctl>
   452f4:	e037883a 	mov	sp,fp
   452f8:	dfc00117 	ldw	ra,4(sp)
   452fc:	df000017 	ldw	fp,0(sp)
   45300:	dec00204 	addi	sp,sp,8
   45304:	f800283a 	ret

00045308 <altera_avalon_jtag_uart_init>:
   45308:	defffa04 	addi	sp,sp,-24
   4530c:	dfc00515 	stw	ra,20(sp)
   45310:	df000415 	stw	fp,16(sp)
   45314:	df000404 	addi	fp,sp,16
   45318:	e13ffd15 	stw	r4,-12(fp)
   4531c:	e17ffe15 	stw	r5,-8(fp)
   45320:	e1bfff15 	stw	r6,-4(fp)
   45324:	e0bffd17 	ldw	r2,-12(fp)
   45328:	00c00044 	movi	r3,1
   4532c:	10c00815 	stw	r3,32(r2)
   45330:	e0bffd17 	ldw	r2,-12(fp)
   45334:	10800017 	ldw	r2,0(r2)
   45338:	10800104 	addi	r2,r2,4
   4533c:	e0fffd17 	ldw	r3,-12(fp)
   45340:	18c00817 	ldw	r3,32(r3)
   45344:	10c00035 	stwio	r3,0(r2)
   45348:	e0fffe17 	ldw	r3,-8(fp)
   4534c:	e0bfff17 	ldw	r2,-4(fp)
   45350:	d8000015 	stw	zero,0(sp)
   45354:	1809883a 	mov	r4,r3
   45358:	100b883a 	mov	r5,r2
   4535c:	01800134 	movhi	r6,4
   45360:	3194f204 	addi	r6,r6,21448
   45364:	e1fffd17 	ldw	r7,-12(fp)
   45368:	00444f80 	call	444f8 <alt_ic_isr_register>
   4536c:	e0bffd17 	ldw	r2,-12(fp)
   45370:	10000915 	stw	zero,36(r2)
   45374:	e0bffd17 	ldw	r2,-12(fp)
   45378:	10c00204 	addi	r3,r2,8
   4537c:	00800174 	movhi	r2,5
   45380:	10a40d04 	addi	r2,r2,-28620
   45384:	10800017 	ldw	r2,0(r2)
   45388:	1809883a 	mov	r4,r3
   4538c:	100b883a 	mov	r5,r2
   45390:	01800134 	movhi	r6,4
   45394:	31957304 	addi	r6,r6,21964
   45398:	e1fffd17 	ldw	r7,-12(fp)
   4539c:	00464e40 	call	464e4 <alt_alarm_start>
   453a0:	1000040e 	bge	r2,zero,453b4 <altera_avalon_jtag_uart_init+0xac>
   453a4:	e0bffd17 	ldw	r2,-12(fp)
   453a8:	00e00034 	movhi	r3,32768
   453ac:	18ffffc4 	addi	r3,r3,-1
   453b0:	10c00115 	stw	r3,4(r2)
   453b4:	e037883a 	mov	sp,fp
   453b8:	dfc00117 	ldw	ra,4(sp)
   453bc:	df000017 	ldw	fp,0(sp)
   453c0:	dec00204 	addi	sp,sp,8
   453c4:	f800283a 	ret

000453c8 <altera_avalon_jtag_uart_irq>:
   453c8:	defff804 	addi	sp,sp,-32
   453cc:	df000715 	stw	fp,28(sp)
   453d0:	df000704 	addi	fp,sp,28
   453d4:	e13fff15 	stw	r4,-4(fp)
   453d8:	e0bfff17 	ldw	r2,-4(fp)
   453dc:	e0bffb15 	stw	r2,-20(fp)
   453e0:	e0bffb17 	ldw	r2,-20(fp)
   453e4:	10800017 	ldw	r2,0(r2)
   453e8:	e0bffc15 	stw	r2,-16(fp)
   453ec:	00000106 	br	453f4 <altera_avalon_jtag_uart_irq+0x2c>
   453f0:	0001883a 	nop
   453f4:	e0bffc17 	ldw	r2,-16(fp)
   453f8:	10800104 	addi	r2,r2,4
   453fc:	10800037 	ldwio	r2,0(r2)
   45400:	e0bffd15 	stw	r2,-12(fp)
   45404:	e0bffd17 	ldw	r2,-12(fp)
   45408:	1080c00c 	andi	r2,r2,768
   4540c:	10006a26 	beq	r2,zero,455b8 <altera_avalon_jtag_uart_irq+0x1f0>
   45410:	e0bffd17 	ldw	r2,-12(fp)
   45414:	1080400c 	andi	r2,r2,256
   45418:	10003326 	beq	r2,zero,454e8 <altera_avalon_jtag_uart_irq+0x120>
   4541c:	00800074 	movhi	r2,1
   45420:	e0bff915 	stw	r2,-28(fp)
   45424:	e0bffb17 	ldw	r2,-20(fp)
   45428:	10800a17 	ldw	r2,40(r2)
   4542c:	10800044 	addi	r2,r2,1
   45430:	1081ffcc 	andi	r2,r2,2047
   45434:	e0bffe15 	stw	r2,-8(fp)
   45438:	e0bffb17 	ldw	r2,-20(fp)
   4543c:	10c00b17 	ldw	r3,44(r2)
   45440:	e0bffe17 	ldw	r2,-8(fp)
   45444:	18801426 	beq	r3,r2,45498 <altera_avalon_jtag_uart_irq+0xd0>
   45448:	e0bffc17 	ldw	r2,-16(fp)
   4544c:	10800037 	ldwio	r2,0(r2)
   45450:	e0bff915 	stw	r2,-28(fp)
   45454:	e0bff917 	ldw	r2,-28(fp)
   45458:	10a0000c 	andi	r2,r2,32768
   4545c:	10001026 	beq	r2,zero,454a0 <altera_avalon_jtag_uart_irq+0xd8>
   45460:	e0bffb17 	ldw	r2,-20(fp)
   45464:	10800a17 	ldw	r2,40(r2)
   45468:	e0fff917 	ldw	r3,-28(fp)
   4546c:	e13ffb17 	ldw	r4,-20(fp)
   45470:	2085883a 	add	r2,r4,r2
   45474:	10800e04 	addi	r2,r2,56
   45478:	10c00005 	stb	r3,0(r2)
   4547c:	e0bffb17 	ldw	r2,-20(fp)
   45480:	10800a17 	ldw	r2,40(r2)
   45484:	10800044 	addi	r2,r2,1
   45488:	10c1ffcc 	andi	r3,r2,2047
   4548c:	e0bffb17 	ldw	r2,-20(fp)
   45490:	10c00a15 	stw	r3,40(r2)
   45494:	003fe306 	br	45424 <_gp+0xffff446c>
   45498:	0001883a 	nop
   4549c:	00000106 	br	454a4 <altera_avalon_jtag_uart_irq+0xdc>
   454a0:	0001883a 	nop
   454a4:	e0bff917 	ldw	r2,-28(fp)
   454a8:	10bfffec 	andhi	r2,r2,65535
   454ac:	10000e26 	beq	r2,zero,454e8 <altera_avalon_jtag_uart_irq+0x120>
   454b0:	e0bffb17 	ldw	r2,-20(fp)
   454b4:	10c00817 	ldw	r3,32(r2)
   454b8:	00bfff84 	movi	r2,-2
   454bc:	1886703a 	and	r3,r3,r2
   454c0:	e0bffb17 	ldw	r2,-20(fp)
   454c4:	10c00815 	stw	r3,32(r2)
   454c8:	e0bffc17 	ldw	r2,-16(fp)
   454cc:	10800104 	addi	r2,r2,4
   454d0:	e0fffb17 	ldw	r3,-20(fp)
   454d4:	18c00817 	ldw	r3,32(r3)
   454d8:	10c00035 	stwio	r3,0(r2)
   454dc:	e0bffc17 	ldw	r2,-16(fp)
   454e0:	10800104 	addi	r2,r2,4
   454e4:	10800037 	ldwio	r2,0(r2)
   454e8:	e0bffd17 	ldw	r2,-12(fp)
   454ec:	1080800c 	andi	r2,r2,512
   454f0:	103fbf26 	beq	r2,zero,453f0 <_gp+0xffff4438>
   454f4:	e0bffd17 	ldw	r2,-12(fp)
   454f8:	1004d43a 	srli	r2,r2,16
   454fc:	e0bffa15 	stw	r2,-24(fp)
   45500:	00001406 	br	45554 <altera_avalon_jtag_uart_irq+0x18c>
   45504:	e0bffc17 	ldw	r2,-16(fp)
   45508:	e0fffb17 	ldw	r3,-20(fp)
   4550c:	18c00d17 	ldw	r3,52(r3)
   45510:	e13ffb17 	ldw	r4,-20(fp)
   45514:	20c7883a 	add	r3,r4,r3
   45518:	18c20e04 	addi	r3,r3,2104
   4551c:	18c00003 	ldbu	r3,0(r3)
   45520:	18c03fcc 	andi	r3,r3,255
   45524:	18c0201c 	xori	r3,r3,128
   45528:	18ffe004 	addi	r3,r3,-128
   4552c:	10c00035 	stwio	r3,0(r2)
   45530:	e0bffb17 	ldw	r2,-20(fp)
   45534:	10800d17 	ldw	r2,52(r2)
   45538:	10800044 	addi	r2,r2,1
   4553c:	10c1ffcc 	andi	r3,r2,2047
   45540:	e0bffb17 	ldw	r2,-20(fp)
   45544:	10c00d15 	stw	r3,52(r2)
   45548:	e0bffa17 	ldw	r2,-24(fp)
   4554c:	10bfffc4 	addi	r2,r2,-1
   45550:	e0bffa15 	stw	r2,-24(fp)
   45554:	e0bffa17 	ldw	r2,-24(fp)
   45558:	10000526 	beq	r2,zero,45570 <altera_avalon_jtag_uart_irq+0x1a8>
   4555c:	e0bffb17 	ldw	r2,-20(fp)
   45560:	10c00d17 	ldw	r3,52(r2)
   45564:	e0bffb17 	ldw	r2,-20(fp)
   45568:	10800c17 	ldw	r2,48(r2)
   4556c:	18bfe51e 	bne	r3,r2,45504 <_gp+0xffff454c>
   45570:	e0bffa17 	ldw	r2,-24(fp)
   45574:	103f9e26 	beq	r2,zero,453f0 <_gp+0xffff4438>
   45578:	e0bffb17 	ldw	r2,-20(fp)
   4557c:	10c00817 	ldw	r3,32(r2)
   45580:	00bfff44 	movi	r2,-3
   45584:	1886703a 	and	r3,r3,r2
   45588:	e0bffb17 	ldw	r2,-20(fp)
   4558c:	10c00815 	stw	r3,32(r2)
   45590:	e0bffb17 	ldw	r2,-20(fp)
   45594:	10800017 	ldw	r2,0(r2)
   45598:	10800104 	addi	r2,r2,4
   4559c:	e0fffb17 	ldw	r3,-20(fp)
   455a0:	18c00817 	ldw	r3,32(r3)
   455a4:	10c00035 	stwio	r3,0(r2)
   455a8:	e0bffc17 	ldw	r2,-16(fp)
   455ac:	10800104 	addi	r2,r2,4
   455b0:	10800037 	ldwio	r2,0(r2)
   455b4:	003f8e06 	br	453f0 <_gp+0xffff4438>
   455b8:	0001883a 	nop
   455bc:	e037883a 	mov	sp,fp
   455c0:	df000017 	ldw	fp,0(sp)
   455c4:	dec00104 	addi	sp,sp,4
   455c8:	f800283a 	ret

000455cc <altera_avalon_jtag_uart_timeout>:
   455cc:	defffc04 	addi	sp,sp,-16
   455d0:	df000315 	stw	fp,12(sp)
   455d4:	df000304 	addi	fp,sp,12
   455d8:	e13fff15 	stw	r4,-4(fp)
   455dc:	e0bfff17 	ldw	r2,-4(fp)
   455e0:	e0bffd15 	stw	r2,-12(fp)
   455e4:	e0bffd17 	ldw	r2,-12(fp)
   455e8:	10800017 	ldw	r2,0(r2)
   455ec:	10800104 	addi	r2,r2,4
   455f0:	10800037 	ldwio	r2,0(r2)
   455f4:	e0bffe15 	stw	r2,-8(fp)
   455f8:	e0bffe17 	ldw	r2,-8(fp)
   455fc:	1081000c 	andi	r2,r2,1024
   45600:	10000a26 	beq	r2,zero,4562c <altera_avalon_jtag_uart_timeout+0x60>
   45604:	e0bffd17 	ldw	r2,-12(fp)
   45608:	10800017 	ldw	r2,0(r2)
   4560c:	10800104 	addi	r2,r2,4
   45610:	e0fffd17 	ldw	r3,-12(fp)
   45614:	18c00817 	ldw	r3,32(r3)
   45618:	18c10014 	ori	r3,r3,1024
   4561c:	10c00035 	stwio	r3,0(r2)
   45620:	e0bffd17 	ldw	r2,-12(fp)
   45624:	10000915 	stw	zero,36(r2)
   45628:	00000a06 	br	45654 <altera_avalon_jtag_uart_timeout+0x88>
   4562c:	e0bffd17 	ldw	r2,-12(fp)
   45630:	10800917 	ldw	r2,36(r2)
   45634:	00e00034 	movhi	r3,32768
   45638:	18ffff04 	addi	r3,r3,-4
   4563c:	18800536 	bltu	r3,r2,45654 <altera_avalon_jtag_uart_timeout+0x88>
   45640:	e0bffd17 	ldw	r2,-12(fp)
   45644:	10800917 	ldw	r2,36(r2)
   45648:	10c00044 	addi	r3,r2,1
   4564c:	e0bffd17 	ldw	r2,-12(fp)
   45650:	10c00915 	stw	r3,36(r2)
   45654:	00800174 	movhi	r2,5
   45658:	10a40d04 	addi	r2,r2,-28620
   4565c:	10800017 	ldw	r2,0(r2)
   45660:	e037883a 	mov	sp,fp
   45664:	df000017 	ldw	fp,0(sp)
   45668:	dec00104 	addi	sp,sp,4
   4566c:	f800283a 	ret

00045670 <altera_avalon_jtag_uart_close>:
   45670:	defffd04 	addi	sp,sp,-12
   45674:	df000215 	stw	fp,8(sp)
   45678:	df000204 	addi	fp,sp,8
   4567c:	e13ffe15 	stw	r4,-8(fp)
   45680:	e17fff15 	stw	r5,-4(fp)
   45684:	00000506 	br	4569c <altera_avalon_jtag_uart_close+0x2c>
   45688:	e0bfff17 	ldw	r2,-4(fp)
   4568c:	1090000c 	andi	r2,r2,16384
   45690:	10000226 	beq	r2,zero,4569c <altera_avalon_jtag_uart_close+0x2c>
   45694:	00bffd44 	movi	r2,-11
   45698:	00000b06 	br	456c8 <altera_avalon_jtag_uart_close+0x58>
   4569c:	e0bffe17 	ldw	r2,-8(fp)
   456a0:	10c00d17 	ldw	r3,52(r2)
   456a4:	e0bffe17 	ldw	r2,-8(fp)
   456a8:	10800c17 	ldw	r2,48(r2)
   456ac:	18800526 	beq	r3,r2,456c4 <altera_avalon_jtag_uart_close+0x54>
   456b0:	e0bffe17 	ldw	r2,-8(fp)
   456b4:	10c00917 	ldw	r3,36(r2)
   456b8:	e0bffe17 	ldw	r2,-8(fp)
   456bc:	10800117 	ldw	r2,4(r2)
   456c0:	18bff136 	bltu	r3,r2,45688 <_gp+0xffff46d0>
   456c4:	0005883a 	mov	r2,zero
   456c8:	e037883a 	mov	sp,fp
   456cc:	df000017 	ldw	fp,0(sp)
   456d0:	dec00104 	addi	sp,sp,4
   456d4:	f800283a 	ret

000456d8 <altera_avalon_jtag_uart_ioctl>:
   456d8:	defffa04 	addi	sp,sp,-24
   456dc:	df000515 	stw	fp,20(sp)
   456e0:	df000504 	addi	fp,sp,20
   456e4:	e13ffd15 	stw	r4,-12(fp)
   456e8:	e17ffe15 	stw	r5,-8(fp)
   456ec:	e1bfff15 	stw	r6,-4(fp)
   456f0:	00bff9c4 	movi	r2,-25
   456f4:	e0bffb15 	stw	r2,-20(fp)
   456f8:	e0bffe17 	ldw	r2,-8(fp)
   456fc:	10da8060 	cmpeqi	r3,r2,27137
   45700:	1800031e 	bne	r3,zero,45710 <altera_avalon_jtag_uart_ioctl+0x38>
   45704:	109a80a0 	cmpeqi	r2,r2,27138
   45708:	1000181e 	bne	r2,zero,4576c <altera_avalon_jtag_uart_ioctl+0x94>
   4570c:	00002606 	br	457a8 <altera_avalon_jtag_uart_ioctl+0xd0>
   45710:	e0bffd17 	ldw	r2,-12(fp)
   45714:	10c00117 	ldw	r3,4(r2)
   45718:	00a00034 	movhi	r2,32768
   4571c:	10bfffc4 	addi	r2,r2,-1
   45720:	18802226 	beq	r3,r2,457ac <altera_avalon_jtag_uart_ioctl+0xd4>
   45724:	e0bfff17 	ldw	r2,-4(fp)
   45728:	10800017 	ldw	r2,0(r2)
   4572c:	e0bffc15 	stw	r2,-16(fp)
   45730:	e0bffc17 	ldw	r2,-16(fp)
   45734:	10800090 	cmplti	r2,r2,2
   45738:	1000061e 	bne	r2,zero,45754 <altera_avalon_jtag_uart_ioctl+0x7c>
   4573c:	e0fffc17 	ldw	r3,-16(fp)
   45740:	00a00034 	movhi	r2,32768
   45744:	10bfffc4 	addi	r2,r2,-1
   45748:	18800226 	beq	r3,r2,45754 <altera_avalon_jtag_uart_ioctl+0x7c>
   4574c:	e0bffc17 	ldw	r2,-16(fp)
   45750:	00000206 	br	4575c <altera_avalon_jtag_uart_ioctl+0x84>
   45754:	00a00034 	movhi	r2,32768
   45758:	10bfff84 	addi	r2,r2,-2
   4575c:	e0fffd17 	ldw	r3,-12(fp)
   45760:	18800115 	stw	r2,4(r3)
   45764:	e03ffb15 	stw	zero,-20(fp)
   45768:	00001006 	br	457ac <altera_avalon_jtag_uart_ioctl+0xd4>
   4576c:	e0bffd17 	ldw	r2,-12(fp)
   45770:	10c00117 	ldw	r3,4(r2)
   45774:	00a00034 	movhi	r2,32768
   45778:	10bfffc4 	addi	r2,r2,-1
   4577c:	18800d26 	beq	r3,r2,457b4 <altera_avalon_jtag_uart_ioctl+0xdc>
   45780:	e0bffd17 	ldw	r2,-12(fp)
   45784:	10c00917 	ldw	r3,36(r2)
   45788:	e0bffd17 	ldw	r2,-12(fp)
   4578c:	10800117 	ldw	r2,4(r2)
   45790:	1885803a 	cmpltu	r2,r3,r2
   45794:	10c03fcc 	andi	r3,r2,255
   45798:	e0bfff17 	ldw	r2,-4(fp)
   4579c:	10c00015 	stw	r3,0(r2)
   457a0:	e03ffb15 	stw	zero,-20(fp)
   457a4:	00000306 	br	457b4 <altera_avalon_jtag_uart_ioctl+0xdc>
   457a8:	00000306 	br	457b8 <altera_avalon_jtag_uart_ioctl+0xe0>
   457ac:	0001883a 	nop
   457b0:	00000106 	br	457b8 <altera_avalon_jtag_uart_ioctl+0xe0>
   457b4:	0001883a 	nop
   457b8:	e0bffb17 	ldw	r2,-20(fp)
   457bc:	e037883a 	mov	sp,fp
   457c0:	df000017 	ldw	fp,0(sp)
   457c4:	dec00104 	addi	sp,sp,4
   457c8:	f800283a 	ret

000457cc <altera_avalon_jtag_uart_read>:
   457cc:	defff304 	addi	sp,sp,-52
   457d0:	dfc00c15 	stw	ra,48(sp)
   457d4:	df000b15 	stw	fp,44(sp)
   457d8:	df000b04 	addi	fp,sp,44
   457dc:	e13ffc15 	stw	r4,-16(fp)
   457e0:	e17ffd15 	stw	r5,-12(fp)
   457e4:	e1bffe15 	stw	r6,-8(fp)
   457e8:	e1ffff15 	stw	r7,-4(fp)
   457ec:	e0bffd17 	ldw	r2,-12(fp)
   457f0:	e0bff515 	stw	r2,-44(fp)
   457f4:	00004706 	br	45914 <altera_avalon_jtag_uart_read+0x148>
   457f8:	e0bffc17 	ldw	r2,-16(fp)
   457fc:	10800a17 	ldw	r2,40(r2)
   45800:	e0bff715 	stw	r2,-36(fp)
   45804:	e0bffc17 	ldw	r2,-16(fp)
   45808:	10800b17 	ldw	r2,44(r2)
   4580c:	e0bff815 	stw	r2,-32(fp)
   45810:	e0fff717 	ldw	r3,-36(fp)
   45814:	e0bff817 	ldw	r2,-32(fp)
   45818:	18800536 	bltu	r3,r2,45830 <altera_avalon_jtag_uart_read+0x64>
   4581c:	e0fff717 	ldw	r3,-36(fp)
   45820:	e0bff817 	ldw	r2,-32(fp)
   45824:	1885c83a 	sub	r2,r3,r2
   45828:	e0bff615 	stw	r2,-40(fp)
   4582c:	00000406 	br	45840 <altera_avalon_jtag_uart_read+0x74>
   45830:	00c20004 	movi	r3,2048
   45834:	e0bff817 	ldw	r2,-32(fp)
   45838:	1885c83a 	sub	r2,r3,r2
   4583c:	e0bff615 	stw	r2,-40(fp)
   45840:	e0bff617 	ldw	r2,-40(fp)
   45844:	10001e26 	beq	r2,zero,458c0 <altera_avalon_jtag_uart_read+0xf4>
   45848:	e0fffe17 	ldw	r3,-8(fp)
   4584c:	e0bff617 	ldw	r2,-40(fp)
   45850:	1880022e 	bgeu	r3,r2,4585c <altera_avalon_jtag_uart_read+0x90>
   45854:	e0bffe17 	ldw	r2,-8(fp)
   45858:	e0bff615 	stw	r2,-40(fp)
   4585c:	e0bff817 	ldw	r2,-32(fp)
   45860:	10800e04 	addi	r2,r2,56
   45864:	e0fffc17 	ldw	r3,-16(fp)
   45868:	1885883a 	add	r2,r3,r2
   4586c:	e13ff517 	ldw	r4,-44(fp)
   45870:	100b883a 	mov	r5,r2
   45874:	e1bff617 	ldw	r6,-40(fp)
   45878:	004710c0 	call	4710c <memcpy>
   4587c:	e0fff517 	ldw	r3,-44(fp)
   45880:	e0bff617 	ldw	r2,-40(fp)
   45884:	1885883a 	add	r2,r3,r2
   45888:	e0bff515 	stw	r2,-44(fp)
   4588c:	e0fffe17 	ldw	r3,-8(fp)
   45890:	e0bff617 	ldw	r2,-40(fp)
   45894:	1885c83a 	sub	r2,r3,r2
   45898:	e0bffe15 	stw	r2,-8(fp)
   4589c:	e0fff817 	ldw	r3,-32(fp)
   458a0:	e0bff617 	ldw	r2,-40(fp)
   458a4:	1885883a 	add	r2,r3,r2
   458a8:	10c1ffcc 	andi	r3,r2,2047
   458ac:	e0bffc17 	ldw	r2,-16(fp)
   458b0:	10c00b15 	stw	r3,44(r2)
   458b4:	e0bffe17 	ldw	r2,-8(fp)
   458b8:	00bfcf16 	blt	zero,r2,457f8 <_gp+0xffff4840>
   458bc:	00000106 	br	458c4 <altera_avalon_jtag_uart_read+0xf8>
   458c0:	0001883a 	nop
   458c4:	e0fff517 	ldw	r3,-44(fp)
   458c8:	e0bffd17 	ldw	r2,-12(fp)
   458cc:	1880141e 	bne	r3,r2,45920 <altera_avalon_jtag_uart_read+0x154>
   458d0:	e0bfff17 	ldw	r2,-4(fp)
   458d4:	1090000c 	andi	r2,r2,16384
   458d8:	1000131e 	bne	r2,zero,45928 <altera_avalon_jtag_uart_read+0x15c>
   458dc:	0001883a 	nop
   458e0:	e0bffc17 	ldw	r2,-16(fp)
   458e4:	10c00a17 	ldw	r3,40(r2)
   458e8:	e0bff717 	ldw	r2,-36(fp)
   458ec:	1880051e 	bne	r3,r2,45904 <altera_avalon_jtag_uart_read+0x138>
   458f0:	e0bffc17 	ldw	r2,-16(fp)
   458f4:	10c00917 	ldw	r3,36(r2)
   458f8:	e0bffc17 	ldw	r2,-16(fp)
   458fc:	10800117 	ldw	r2,4(r2)
   45900:	18bff736 	bltu	r3,r2,458e0 <_gp+0xffff4928>
   45904:	e0bffc17 	ldw	r2,-16(fp)
   45908:	10c00a17 	ldw	r3,40(r2)
   4590c:	e0bff717 	ldw	r2,-36(fp)
   45910:	18800726 	beq	r3,r2,45930 <altera_avalon_jtag_uart_read+0x164>
   45914:	e0bffe17 	ldw	r2,-8(fp)
   45918:	00bfb716 	blt	zero,r2,457f8 <_gp+0xffff4840>
   4591c:	00000506 	br	45934 <altera_avalon_jtag_uart_read+0x168>
   45920:	0001883a 	nop
   45924:	00000306 	br	45934 <altera_avalon_jtag_uart_read+0x168>
   45928:	0001883a 	nop
   4592c:	00000106 	br	45934 <altera_avalon_jtag_uart_read+0x168>
   45930:	0001883a 	nop
   45934:	e0fff517 	ldw	r3,-44(fp)
   45938:	e0bffd17 	ldw	r2,-12(fp)
   4593c:	18801726 	beq	r3,r2,4599c <altera_avalon_jtag_uart_read+0x1d0>
   45940:	0005303a 	rdctl	r2,status
   45944:	e0bffa15 	stw	r2,-24(fp)
   45948:	e0fffa17 	ldw	r3,-24(fp)
   4594c:	00bfff84 	movi	r2,-2
   45950:	1884703a 	and	r2,r3,r2
   45954:	1001703a 	wrctl	status,r2
   45958:	e0bffa17 	ldw	r2,-24(fp)
   4595c:	e0bff915 	stw	r2,-28(fp)
   45960:	e0bffc17 	ldw	r2,-16(fp)
   45964:	10800817 	ldw	r2,32(r2)
   45968:	10c00054 	ori	r3,r2,1
   4596c:	e0bffc17 	ldw	r2,-16(fp)
   45970:	10c00815 	stw	r3,32(r2)
   45974:	e0bffc17 	ldw	r2,-16(fp)
   45978:	10800017 	ldw	r2,0(r2)
   4597c:	10800104 	addi	r2,r2,4
   45980:	e0fffc17 	ldw	r3,-16(fp)
   45984:	18c00817 	ldw	r3,32(r3)
   45988:	10c00035 	stwio	r3,0(r2)
   4598c:	e0bff917 	ldw	r2,-28(fp)
   45990:	e0bffb15 	stw	r2,-20(fp)
   45994:	e0bffb17 	ldw	r2,-20(fp)
   45998:	1001703a 	wrctl	status,r2
   4599c:	e0fff517 	ldw	r3,-44(fp)
   459a0:	e0bffd17 	ldw	r2,-12(fp)
   459a4:	18800426 	beq	r3,r2,459b8 <altera_avalon_jtag_uart_read+0x1ec>
   459a8:	e0fff517 	ldw	r3,-44(fp)
   459ac:	e0bffd17 	ldw	r2,-12(fp)
   459b0:	1885c83a 	sub	r2,r3,r2
   459b4:	00000606 	br	459d0 <altera_avalon_jtag_uart_read+0x204>
   459b8:	e0bfff17 	ldw	r2,-4(fp)
   459bc:	1090000c 	andi	r2,r2,16384
   459c0:	10000226 	beq	r2,zero,459cc <altera_avalon_jtag_uart_read+0x200>
   459c4:	00bffd44 	movi	r2,-11
   459c8:	00000106 	br	459d0 <altera_avalon_jtag_uart_read+0x204>
   459cc:	00bffec4 	movi	r2,-5
   459d0:	e037883a 	mov	sp,fp
   459d4:	dfc00117 	ldw	ra,4(sp)
   459d8:	df000017 	ldw	fp,0(sp)
   459dc:	dec00204 	addi	sp,sp,8
   459e0:	f800283a 	ret

000459e4 <altera_avalon_jtag_uart_write>:
   459e4:	defff304 	addi	sp,sp,-52
   459e8:	dfc00c15 	stw	ra,48(sp)
   459ec:	df000b15 	stw	fp,44(sp)
   459f0:	df000b04 	addi	fp,sp,44
   459f4:	e13ffc15 	stw	r4,-16(fp)
   459f8:	e17ffd15 	stw	r5,-12(fp)
   459fc:	e1bffe15 	stw	r6,-8(fp)
   45a00:	e1ffff15 	stw	r7,-4(fp)
   45a04:	e03ff515 	stw	zero,-44(fp)
   45a08:	e0bffd17 	ldw	r2,-12(fp)
   45a0c:	e0bff715 	stw	r2,-36(fp)
   45a10:	00003706 	br	45af0 <altera_avalon_jtag_uart_write+0x10c>
   45a14:	e0bffc17 	ldw	r2,-16(fp)
   45a18:	10800c17 	ldw	r2,48(r2)
   45a1c:	e0bff815 	stw	r2,-32(fp)
   45a20:	e0bffc17 	ldw	r2,-16(fp)
   45a24:	10800d17 	ldw	r2,52(r2)
   45a28:	e0bff515 	stw	r2,-44(fp)
   45a2c:	e0fff817 	ldw	r3,-32(fp)
   45a30:	e0bff517 	ldw	r2,-44(fp)
   45a34:	1880062e 	bgeu	r3,r2,45a50 <altera_avalon_jtag_uart_write+0x6c>
   45a38:	e0fff517 	ldw	r3,-44(fp)
   45a3c:	e0bff817 	ldw	r2,-32(fp)
   45a40:	1885c83a 	sub	r2,r3,r2
   45a44:	10bfffc4 	addi	r2,r2,-1
   45a48:	e0bff615 	stw	r2,-40(fp)
   45a4c:	00000b06 	br	45a7c <altera_avalon_jtag_uart_write+0x98>
   45a50:	e0bff517 	ldw	r2,-44(fp)
   45a54:	10000526 	beq	r2,zero,45a6c <altera_avalon_jtag_uart_write+0x88>
   45a58:	00c20004 	movi	r3,2048
   45a5c:	e0bff817 	ldw	r2,-32(fp)
   45a60:	1885c83a 	sub	r2,r3,r2
   45a64:	e0bff615 	stw	r2,-40(fp)
   45a68:	00000406 	br	45a7c <altera_avalon_jtag_uart_write+0x98>
   45a6c:	00c1ffc4 	movi	r3,2047
   45a70:	e0bff817 	ldw	r2,-32(fp)
   45a74:	1885c83a 	sub	r2,r3,r2
   45a78:	e0bff615 	stw	r2,-40(fp)
   45a7c:	e0bff617 	ldw	r2,-40(fp)
   45a80:	10001e26 	beq	r2,zero,45afc <altera_avalon_jtag_uart_write+0x118>
   45a84:	e0fffe17 	ldw	r3,-8(fp)
   45a88:	e0bff617 	ldw	r2,-40(fp)
   45a8c:	1880022e 	bgeu	r3,r2,45a98 <altera_avalon_jtag_uart_write+0xb4>
   45a90:	e0bffe17 	ldw	r2,-8(fp)
   45a94:	e0bff615 	stw	r2,-40(fp)
   45a98:	e0bff817 	ldw	r2,-32(fp)
   45a9c:	10820e04 	addi	r2,r2,2104
   45aa0:	e0fffc17 	ldw	r3,-16(fp)
   45aa4:	1885883a 	add	r2,r3,r2
   45aa8:	1009883a 	mov	r4,r2
   45aac:	e17ffd17 	ldw	r5,-12(fp)
   45ab0:	e1bff617 	ldw	r6,-40(fp)
   45ab4:	004710c0 	call	4710c <memcpy>
   45ab8:	e0fffd17 	ldw	r3,-12(fp)
   45abc:	e0bff617 	ldw	r2,-40(fp)
   45ac0:	1885883a 	add	r2,r3,r2
   45ac4:	e0bffd15 	stw	r2,-12(fp)
   45ac8:	e0fffe17 	ldw	r3,-8(fp)
   45acc:	e0bff617 	ldw	r2,-40(fp)
   45ad0:	1885c83a 	sub	r2,r3,r2
   45ad4:	e0bffe15 	stw	r2,-8(fp)
   45ad8:	e0fff817 	ldw	r3,-32(fp)
   45adc:	e0bff617 	ldw	r2,-40(fp)
   45ae0:	1885883a 	add	r2,r3,r2
   45ae4:	10c1ffcc 	andi	r3,r2,2047
   45ae8:	e0bffc17 	ldw	r2,-16(fp)
   45aec:	10c00c15 	stw	r3,48(r2)
   45af0:	e0bffe17 	ldw	r2,-8(fp)
   45af4:	00bfc716 	blt	zero,r2,45a14 <_gp+0xffff4a5c>
   45af8:	00000106 	br	45b00 <altera_avalon_jtag_uart_write+0x11c>
   45afc:	0001883a 	nop
   45b00:	0005303a 	rdctl	r2,status
   45b04:	e0bffa15 	stw	r2,-24(fp)
   45b08:	e0fffa17 	ldw	r3,-24(fp)
   45b0c:	00bfff84 	movi	r2,-2
   45b10:	1884703a 	and	r2,r3,r2
   45b14:	1001703a 	wrctl	status,r2
   45b18:	e0bffa17 	ldw	r2,-24(fp)
   45b1c:	e0bff915 	stw	r2,-28(fp)
   45b20:	e0bffc17 	ldw	r2,-16(fp)
   45b24:	10800817 	ldw	r2,32(r2)
   45b28:	10c00094 	ori	r3,r2,2
   45b2c:	e0bffc17 	ldw	r2,-16(fp)
   45b30:	10c00815 	stw	r3,32(r2)
   45b34:	e0bffc17 	ldw	r2,-16(fp)
   45b38:	10800017 	ldw	r2,0(r2)
   45b3c:	10800104 	addi	r2,r2,4
   45b40:	e0fffc17 	ldw	r3,-16(fp)
   45b44:	18c00817 	ldw	r3,32(r3)
   45b48:	10c00035 	stwio	r3,0(r2)
   45b4c:	e0bff917 	ldw	r2,-28(fp)
   45b50:	e0bffb15 	stw	r2,-20(fp)
   45b54:	e0bffb17 	ldw	r2,-20(fp)
   45b58:	1001703a 	wrctl	status,r2
   45b5c:	e0bffe17 	ldw	r2,-8(fp)
   45b60:	0080100e 	bge	zero,r2,45ba4 <altera_avalon_jtag_uart_write+0x1c0>
   45b64:	e0bfff17 	ldw	r2,-4(fp)
   45b68:	1090000c 	andi	r2,r2,16384
   45b6c:	1000101e 	bne	r2,zero,45bb0 <altera_avalon_jtag_uart_write+0x1cc>
   45b70:	0001883a 	nop
   45b74:	e0bffc17 	ldw	r2,-16(fp)
   45b78:	10c00d17 	ldw	r3,52(r2)
   45b7c:	e0bff517 	ldw	r2,-44(fp)
   45b80:	1880051e 	bne	r3,r2,45b98 <altera_avalon_jtag_uart_write+0x1b4>
   45b84:	e0bffc17 	ldw	r2,-16(fp)
   45b88:	10c00917 	ldw	r3,36(r2)
   45b8c:	e0bffc17 	ldw	r2,-16(fp)
   45b90:	10800117 	ldw	r2,4(r2)
   45b94:	18bff736 	bltu	r3,r2,45b74 <_gp+0xffff4bbc>
   45b98:	e0bffc17 	ldw	r2,-16(fp)
   45b9c:	10800917 	ldw	r2,36(r2)
   45ba0:	1000051e 	bne	r2,zero,45bb8 <altera_avalon_jtag_uart_write+0x1d4>
   45ba4:	e0bffe17 	ldw	r2,-8(fp)
   45ba8:	00bfd116 	blt	zero,r2,45af0 <_gp+0xffff4b38>
   45bac:	00000306 	br	45bbc <altera_avalon_jtag_uart_write+0x1d8>
   45bb0:	0001883a 	nop
   45bb4:	00000106 	br	45bbc <altera_avalon_jtag_uart_write+0x1d8>
   45bb8:	0001883a 	nop
   45bbc:	e0fffd17 	ldw	r3,-12(fp)
   45bc0:	e0bff717 	ldw	r2,-36(fp)
   45bc4:	18800426 	beq	r3,r2,45bd8 <altera_avalon_jtag_uart_write+0x1f4>
   45bc8:	e0fffd17 	ldw	r3,-12(fp)
   45bcc:	e0bff717 	ldw	r2,-36(fp)
   45bd0:	1885c83a 	sub	r2,r3,r2
   45bd4:	00000606 	br	45bf0 <altera_avalon_jtag_uart_write+0x20c>
   45bd8:	e0bfff17 	ldw	r2,-4(fp)
   45bdc:	1090000c 	andi	r2,r2,16384
   45be0:	10000226 	beq	r2,zero,45bec <altera_avalon_jtag_uart_write+0x208>
   45be4:	00bffd44 	movi	r2,-11
   45be8:	00000106 	br	45bf0 <altera_avalon_jtag_uart_write+0x20c>
   45bec:	00bffec4 	movi	r2,-5
   45bf0:	e037883a 	mov	sp,fp
   45bf4:	dfc00117 	ldw	ra,4(sp)
   45bf8:	df000017 	ldw	fp,0(sp)
   45bfc:	dec00204 	addi	sp,sp,8
   45c00:	f800283a 	ret

00045c04 <altera_avalon_uart_read_fd>:
   45c04:	defffa04 	addi	sp,sp,-24
   45c08:	dfc00515 	stw	ra,20(sp)
   45c0c:	df000415 	stw	fp,16(sp)
   45c10:	df000404 	addi	fp,sp,16
   45c14:	e13ffd15 	stw	r4,-12(fp)
   45c18:	e17ffe15 	stw	r5,-8(fp)
   45c1c:	e1bfff15 	stw	r6,-4(fp)
   45c20:	e0bffd17 	ldw	r2,-12(fp)
   45c24:	10800017 	ldw	r2,0(r2)
   45c28:	e0bffc15 	stw	r2,-16(fp)
   45c2c:	e0bffc17 	ldw	r2,-16(fp)
   45c30:	10c00a04 	addi	r3,r2,40
   45c34:	e0bffd17 	ldw	r2,-12(fp)
   45c38:	10800217 	ldw	r2,8(r2)
   45c3c:	1809883a 	mov	r4,r3
   45c40:	e17ffe17 	ldw	r5,-8(fp)
   45c44:	e1bfff17 	ldw	r6,-4(fp)
   45c48:	100f883a 	mov	r7,r2
   45c4c:	004610c0 	call	4610c <altera_avalon_uart_read>
   45c50:	e037883a 	mov	sp,fp
   45c54:	dfc00117 	ldw	ra,4(sp)
   45c58:	df000017 	ldw	fp,0(sp)
   45c5c:	dec00204 	addi	sp,sp,8
   45c60:	f800283a 	ret

00045c64 <altera_avalon_uart_write_fd>:
   45c64:	defffa04 	addi	sp,sp,-24
   45c68:	dfc00515 	stw	ra,20(sp)
   45c6c:	df000415 	stw	fp,16(sp)
   45c70:	df000404 	addi	fp,sp,16
   45c74:	e13ffd15 	stw	r4,-12(fp)
   45c78:	e17ffe15 	stw	r5,-8(fp)
   45c7c:	e1bfff15 	stw	r6,-4(fp)
   45c80:	e0bffd17 	ldw	r2,-12(fp)
   45c84:	10800017 	ldw	r2,0(r2)
   45c88:	e0bffc15 	stw	r2,-16(fp)
   45c8c:	e0bffc17 	ldw	r2,-16(fp)
   45c90:	10c00a04 	addi	r3,r2,40
   45c94:	e0bffd17 	ldw	r2,-12(fp)
   45c98:	10800217 	ldw	r2,8(r2)
   45c9c:	1809883a 	mov	r4,r3
   45ca0:	e17ffe17 	ldw	r5,-8(fp)
   45ca4:	e1bfff17 	ldw	r6,-4(fp)
   45ca8:	100f883a 	mov	r7,r2
   45cac:	004633c0 	call	4633c <altera_avalon_uart_write>
   45cb0:	e037883a 	mov	sp,fp
   45cb4:	dfc00117 	ldw	ra,4(sp)
   45cb8:	df000017 	ldw	fp,0(sp)
   45cbc:	dec00204 	addi	sp,sp,8
   45cc0:	f800283a 	ret

00045cc4 <altera_avalon_uart_close_fd>:
   45cc4:	defffc04 	addi	sp,sp,-16
   45cc8:	dfc00315 	stw	ra,12(sp)
   45ccc:	df000215 	stw	fp,8(sp)
   45cd0:	df000204 	addi	fp,sp,8
   45cd4:	e13fff15 	stw	r4,-4(fp)
   45cd8:	e0bfff17 	ldw	r2,-4(fp)
   45cdc:	10800017 	ldw	r2,0(r2)
   45ce0:	e0bffe15 	stw	r2,-8(fp)
   45ce4:	e0bffe17 	ldw	r2,-8(fp)
   45ce8:	10c00a04 	addi	r3,r2,40
   45cec:	e0bfff17 	ldw	r2,-4(fp)
   45cf0:	10800217 	ldw	r2,8(r2)
   45cf4:	1809883a 	mov	r4,r3
   45cf8:	100b883a 	mov	r5,r2
   45cfc:	00460680 	call	46068 <altera_avalon_uart_close>
   45d00:	e037883a 	mov	sp,fp
   45d04:	dfc00117 	ldw	ra,4(sp)
   45d08:	df000017 	ldw	fp,0(sp)
   45d0c:	dec00204 	addi	sp,sp,8
   45d10:	f800283a 	ret

00045d14 <altera_avalon_uart_init>:
   45d14:	defff804 	addi	sp,sp,-32
   45d18:	dfc00715 	stw	ra,28(sp)
   45d1c:	df000615 	stw	fp,24(sp)
   45d20:	df000604 	addi	fp,sp,24
   45d24:	e13ffd15 	stw	r4,-12(fp)
   45d28:	e17ffe15 	stw	r5,-8(fp)
   45d2c:	e1bfff15 	stw	r6,-4(fp)
   45d30:	e0bffd17 	ldw	r2,-12(fp)
   45d34:	10800017 	ldw	r2,0(r2)
   45d38:	e0bffb15 	stw	r2,-20(fp)
   45d3c:	0005883a 	mov	r2,zero
   45d40:	1000041e 	bne	r2,zero,45d54 <altera_avalon_uart_init+0x40>
   45d44:	0005883a 	mov	r2,zero
   45d48:	1000021e 	bne	r2,zero,45d54 <altera_avalon_uart_init+0x40>
   45d4c:	0005883a 	mov	r2,zero
   45d50:	10000226 	beq	r2,zero,45d5c <altera_avalon_uart_init+0x48>
   45d54:	00800044 	movi	r2,1
   45d58:	00000106 	br	45d60 <altera_avalon_uart_init+0x4c>
   45d5c:	0005883a 	mov	r2,zero
   45d60:	e0bffc15 	stw	r2,-16(fp)
   45d64:	e0bffc17 	ldw	r2,-16(fp)
   45d68:	10000f1e 	bne	r2,zero,45da8 <altera_avalon_uart_init+0x94>
   45d6c:	e0bffd17 	ldw	r2,-12(fp)
   45d70:	00c32004 	movi	r3,3200
   45d74:	10c00115 	stw	r3,4(r2)
   45d78:	e0bffb17 	ldw	r2,-20(fp)
   45d7c:	10800304 	addi	r2,r2,12
   45d80:	e0fffd17 	ldw	r3,-12(fp)
   45d84:	18c00117 	ldw	r3,4(r3)
   45d88:	10c00035 	stwio	r3,0(r2)
   45d8c:	d8000015 	stw	zero,0(sp)
   45d90:	e13ffe17 	ldw	r4,-8(fp)
   45d94:	e17fff17 	ldw	r5,-4(fp)
   45d98:	01800134 	movhi	r6,4
   45d9c:	31976f04 	addi	r6,r6,23996
   45da0:	e1fffd17 	ldw	r7,-12(fp)
   45da4:	00444f80 	call	444f8 <alt_ic_isr_register>
   45da8:	e037883a 	mov	sp,fp
   45dac:	dfc00117 	ldw	ra,4(sp)
   45db0:	df000017 	ldw	fp,0(sp)
   45db4:	dec00204 	addi	sp,sp,8
   45db8:	f800283a 	ret

00045dbc <altera_avalon_uart_irq>:
   45dbc:	defffa04 	addi	sp,sp,-24
   45dc0:	dfc00515 	stw	ra,20(sp)
   45dc4:	df000415 	stw	fp,16(sp)
   45dc8:	df000404 	addi	fp,sp,16
   45dcc:	e13fff15 	stw	r4,-4(fp)
   45dd0:	e0bfff17 	ldw	r2,-4(fp)
   45dd4:	e0bffc15 	stw	r2,-16(fp)
   45dd8:	e0bffc17 	ldw	r2,-16(fp)
   45ddc:	10800017 	ldw	r2,0(r2)
   45de0:	e0bffd15 	stw	r2,-12(fp)
   45de4:	e0bffd17 	ldw	r2,-12(fp)
   45de8:	10800204 	addi	r2,r2,8
   45dec:	10800037 	ldwio	r2,0(r2)
   45df0:	e0bffe15 	stw	r2,-8(fp)
   45df4:	e0bffd17 	ldw	r2,-12(fp)
   45df8:	10800204 	addi	r2,r2,8
   45dfc:	0007883a 	mov	r3,zero
   45e00:	10c00035 	stwio	r3,0(r2)
   45e04:	e0bffd17 	ldw	r2,-12(fp)
   45e08:	10800204 	addi	r2,r2,8
   45e0c:	10800037 	ldwio	r2,0(r2)
   45e10:	e0bffe17 	ldw	r2,-8(fp)
   45e14:	1080200c 	andi	r2,r2,128
   45e18:	10000326 	beq	r2,zero,45e28 <altera_avalon_uart_irq+0x6c>
   45e1c:	e13ffc17 	ldw	r4,-16(fp)
   45e20:	e17ffe17 	ldw	r5,-8(fp)
   45e24:	0045e540 	call	45e54 <altera_avalon_uart_rxirq>
   45e28:	e0bffe17 	ldw	r2,-8(fp)
   45e2c:	1081100c 	andi	r2,r2,1088
   45e30:	10000326 	beq	r2,zero,45e40 <altera_avalon_uart_irq+0x84>
   45e34:	e13ffc17 	ldw	r4,-16(fp)
   45e38:	e17ffe17 	ldw	r5,-8(fp)
   45e3c:	0045f2c0 	call	45f2c <altera_avalon_uart_txirq>
   45e40:	e037883a 	mov	sp,fp
   45e44:	dfc00117 	ldw	ra,4(sp)
   45e48:	df000017 	ldw	fp,0(sp)
   45e4c:	dec00204 	addi	sp,sp,8
   45e50:	f800283a 	ret

00045e54 <altera_avalon_uart_rxirq>:
   45e54:	defffc04 	addi	sp,sp,-16
   45e58:	df000315 	stw	fp,12(sp)
   45e5c:	df000304 	addi	fp,sp,12
   45e60:	e13ffe15 	stw	r4,-8(fp)
   45e64:	e17fff15 	stw	r5,-4(fp)
   45e68:	e0bfff17 	ldw	r2,-4(fp)
   45e6c:	108000cc 	andi	r2,r2,3
   45e70:	1000291e 	bne	r2,zero,45f18 <altera_avalon_uart_rxirq+0xc4>
   45e74:	e0bffe17 	ldw	r2,-8(fp)
   45e78:	10800317 	ldw	r2,12(r2)
   45e7c:	e0bffe17 	ldw	r2,-8(fp)
   45e80:	10800317 	ldw	r2,12(r2)
   45e84:	10800044 	addi	r2,r2,1
   45e88:	10800fcc 	andi	r2,r2,63
   45e8c:	e0bffd15 	stw	r2,-12(fp)
   45e90:	e0bffe17 	ldw	r2,-8(fp)
   45e94:	10800317 	ldw	r2,12(r2)
   45e98:	e0fffe17 	ldw	r3,-8(fp)
   45e9c:	18c00017 	ldw	r3,0(r3)
   45ea0:	18c00037 	ldwio	r3,0(r3)
   45ea4:	e13ffe17 	ldw	r4,-8(fp)
   45ea8:	2085883a 	add	r2,r4,r2
   45eac:	10800704 	addi	r2,r2,28
   45eb0:	10c00005 	stb	r3,0(r2)
   45eb4:	e0bffe17 	ldw	r2,-8(fp)
   45eb8:	e0fffd17 	ldw	r3,-12(fp)
   45ebc:	10c00315 	stw	r3,12(r2)
   45ec0:	e0bffe17 	ldw	r2,-8(fp)
   45ec4:	10800317 	ldw	r2,12(r2)
   45ec8:	10800044 	addi	r2,r2,1
   45ecc:	10800fcc 	andi	r2,r2,63
   45ed0:	e0bffd15 	stw	r2,-12(fp)
   45ed4:	e0bffe17 	ldw	r2,-8(fp)
   45ed8:	10c00217 	ldw	r3,8(r2)
   45edc:	e0bffd17 	ldw	r2,-12(fp)
   45ee0:	18800e1e 	bne	r3,r2,45f1c <altera_avalon_uart_rxirq+0xc8>
   45ee4:	e0bffe17 	ldw	r2,-8(fp)
   45ee8:	10c00117 	ldw	r3,4(r2)
   45eec:	00bfdfc4 	movi	r2,-129
   45ef0:	1886703a 	and	r3,r3,r2
   45ef4:	e0bffe17 	ldw	r2,-8(fp)
   45ef8:	10c00115 	stw	r3,4(r2)
   45efc:	e0bffe17 	ldw	r2,-8(fp)
   45f00:	10800017 	ldw	r2,0(r2)
   45f04:	10800304 	addi	r2,r2,12
   45f08:	e0fffe17 	ldw	r3,-8(fp)
   45f0c:	18c00117 	ldw	r3,4(r3)
   45f10:	10c00035 	stwio	r3,0(r2)
   45f14:	00000106 	br	45f1c <altera_avalon_uart_rxirq+0xc8>
   45f18:	0001883a 	nop
   45f1c:	e037883a 	mov	sp,fp
   45f20:	df000017 	ldw	fp,0(sp)
   45f24:	dec00104 	addi	sp,sp,4
   45f28:	f800283a 	ret

00045f2c <altera_avalon_uart_txirq>:
   45f2c:	defffd04 	addi	sp,sp,-12
   45f30:	df000215 	stw	fp,8(sp)
   45f34:	df000204 	addi	fp,sp,8
   45f38:	e13ffe15 	stw	r4,-8(fp)
   45f3c:	e17fff15 	stw	r5,-4(fp)
   45f40:	e0bffe17 	ldw	r2,-8(fp)
   45f44:	10c00417 	ldw	r3,16(r2)
   45f48:	e0bffe17 	ldw	r2,-8(fp)
   45f4c:	10800517 	ldw	r2,20(r2)
   45f50:	18803026 	beq	r3,r2,46014 <altera_avalon_uart_txirq+0xe8>
   45f54:	e0bffe17 	ldw	r2,-8(fp)
   45f58:	10800617 	ldw	r2,24(r2)
   45f5c:	1080008c 	andi	r2,r2,2
   45f60:	10000326 	beq	r2,zero,45f70 <altera_avalon_uart_txirq+0x44>
   45f64:	e0bfff17 	ldw	r2,-4(fp)
   45f68:	1082000c 	andi	r2,r2,2048
   45f6c:	10001b26 	beq	r2,zero,45fdc <altera_avalon_uart_txirq+0xb0>
   45f70:	e0bffe17 	ldw	r2,-8(fp)
   45f74:	10800417 	ldw	r2,16(r2)
   45f78:	e0bffe17 	ldw	r2,-8(fp)
   45f7c:	10800017 	ldw	r2,0(r2)
   45f80:	10800104 	addi	r2,r2,4
   45f84:	e0fffe17 	ldw	r3,-8(fp)
   45f88:	18c00417 	ldw	r3,16(r3)
   45f8c:	e13ffe17 	ldw	r4,-8(fp)
   45f90:	20c7883a 	add	r3,r4,r3
   45f94:	18c01704 	addi	r3,r3,92
   45f98:	18c00003 	ldbu	r3,0(r3)
   45f9c:	18c03fcc 	andi	r3,r3,255
   45fa0:	10c00035 	stwio	r3,0(r2)
   45fa4:	e0bffe17 	ldw	r2,-8(fp)
   45fa8:	10800417 	ldw	r2,16(r2)
   45fac:	10800044 	addi	r2,r2,1
   45fb0:	e0fffe17 	ldw	r3,-8(fp)
   45fb4:	18800415 	stw	r2,16(r3)
   45fb8:	10c00fcc 	andi	r3,r2,63
   45fbc:	e0bffe17 	ldw	r2,-8(fp)
   45fc0:	10c00415 	stw	r3,16(r2)
   45fc4:	e0bffe17 	ldw	r2,-8(fp)
   45fc8:	10800117 	ldw	r2,4(r2)
   45fcc:	10c01014 	ori	r3,r2,64
   45fd0:	e0bffe17 	ldw	r2,-8(fp)
   45fd4:	10c00115 	stw	r3,4(r2)
   45fd8:	00000e06 	br	46014 <altera_avalon_uart_txirq+0xe8>
   45fdc:	e0bffe17 	ldw	r2,-8(fp)
   45fe0:	10800017 	ldw	r2,0(r2)
   45fe4:	10800204 	addi	r2,r2,8
   45fe8:	10800037 	ldwio	r2,0(r2)
   45fec:	e0bfff15 	stw	r2,-4(fp)
   45ff0:	e0bfff17 	ldw	r2,-4(fp)
   45ff4:	1082000c 	andi	r2,r2,2048
   45ff8:	1000061e 	bne	r2,zero,46014 <altera_avalon_uart_txirq+0xe8>
   45ffc:	e0bffe17 	ldw	r2,-8(fp)
   46000:	10c00117 	ldw	r3,4(r2)
   46004:	00bfefc4 	movi	r2,-65
   46008:	1886703a 	and	r3,r3,r2
   4600c:	e0bffe17 	ldw	r2,-8(fp)
   46010:	10c00115 	stw	r3,4(r2)
   46014:	e0bffe17 	ldw	r2,-8(fp)
   46018:	10c00417 	ldw	r3,16(r2)
   4601c:	e0bffe17 	ldw	r2,-8(fp)
   46020:	10800517 	ldw	r2,20(r2)
   46024:	1880061e 	bne	r3,r2,46040 <altera_avalon_uart_txirq+0x114>
   46028:	e0bffe17 	ldw	r2,-8(fp)
   4602c:	10c00117 	ldw	r3,4(r2)
   46030:	00beefc4 	movi	r2,-1089
   46034:	1886703a 	and	r3,r3,r2
   46038:	e0bffe17 	ldw	r2,-8(fp)
   4603c:	10c00115 	stw	r3,4(r2)
   46040:	e0bffe17 	ldw	r2,-8(fp)
   46044:	10800017 	ldw	r2,0(r2)
   46048:	10800304 	addi	r2,r2,12
   4604c:	e0fffe17 	ldw	r3,-8(fp)
   46050:	18c00117 	ldw	r3,4(r3)
   46054:	10c00035 	stwio	r3,0(r2)
   46058:	e037883a 	mov	sp,fp
   4605c:	df000017 	ldw	fp,0(sp)
   46060:	dec00104 	addi	sp,sp,4
   46064:	f800283a 	ret

00046068 <altera_avalon_uart_close>:
   46068:	defffd04 	addi	sp,sp,-12
   4606c:	df000215 	stw	fp,8(sp)
   46070:	df000204 	addi	fp,sp,8
   46074:	e13ffe15 	stw	r4,-8(fp)
   46078:	e17fff15 	stw	r5,-4(fp)
   4607c:	00000506 	br	46094 <altera_avalon_uart_close+0x2c>
   46080:	e0bfff17 	ldw	r2,-4(fp)
   46084:	1090000c 	andi	r2,r2,16384
   46088:	10000226 	beq	r2,zero,46094 <altera_avalon_uart_close+0x2c>
   4608c:	00bffd44 	movi	r2,-11
   46090:	00000606 	br	460ac <altera_avalon_uart_close+0x44>
   46094:	e0bffe17 	ldw	r2,-8(fp)
   46098:	10c00417 	ldw	r3,16(r2)
   4609c:	e0bffe17 	ldw	r2,-8(fp)
   460a0:	10800517 	ldw	r2,20(r2)
   460a4:	18bff61e 	bne	r3,r2,46080 <_gp+0xffff50c8>
   460a8:	0005883a 	mov	r2,zero
   460ac:	e037883a 	mov	sp,fp
   460b0:	df000017 	ldw	fp,0(sp)
   460b4:	dec00104 	addi	sp,sp,4
   460b8:	f800283a 	ret

000460bc <alt_get_errno>:
   460bc:	defffe04 	addi	sp,sp,-8
   460c0:	dfc00115 	stw	ra,4(sp)
   460c4:	df000015 	stw	fp,0(sp)
   460c8:	d839883a 	mov	fp,sp
   460cc:	00800174 	movhi	r2,5
   460d0:	10a3fc04 	addi	r2,r2,-28688
   460d4:	10800017 	ldw	r2,0(r2)
   460d8:	10000526 	beq	r2,zero,460f0 <alt_get_errno+0x34>
   460dc:	00800174 	movhi	r2,5
   460e0:	10a3fc04 	addi	r2,r2,-28688
   460e4:	10800017 	ldw	r2,0(r2)
   460e8:	103ee83a 	callr	r2
   460ec:	00000206 	br	460f8 <alt_get_errno+0x3c>
   460f0:	00800174 	movhi	r2,5
   460f4:	10a40804 	addi	r2,r2,-28640
   460f8:	e037883a 	mov	sp,fp
   460fc:	dfc00117 	ldw	ra,4(sp)
   46100:	df000017 	ldw	fp,0(sp)
   46104:	dec00204 	addi	sp,sp,8
   46108:	f800283a 	ret

0004610c <altera_avalon_uart_read>:
   4610c:	defff204 	addi	sp,sp,-56
   46110:	dfc00d15 	stw	ra,52(sp)
   46114:	df000c15 	stw	fp,48(sp)
   46118:	df000c04 	addi	fp,sp,48
   4611c:	e13ffc15 	stw	r4,-16(fp)
   46120:	e17ffd15 	stw	r5,-12(fp)
   46124:	e1bffe15 	stw	r6,-8(fp)
   46128:	e1ffff15 	stw	r7,-4(fp)
   4612c:	e03ff405 	stb	zero,-48(fp)
   46130:	e03ff515 	stw	zero,-44(fp)
   46134:	e0bfff17 	ldw	r2,-4(fp)
   46138:	1090000c 	andi	r2,r2,16384
   4613c:	1005003a 	cmpeq	r2,r2,zero
   46140:	10803fcc 	andi	r2,r2,255
   46144:	e0bff615 	stw	r2,-40(fp)
   46148:	00001506 	br	461a0 <altera_avalon_uart_read+0x94>
   4614c:	e0bff517 	ldw	r2,-44(fp)
   46150:	10800044 	addi	r2,r2,1
   46154:	e0bff515 	stw	r2,-44(fp)
   46158:	e0bffc17 	ldw	r2,-16(fp)
   4615c:	10800217 	ldw	r2,8(r2)
   46160:	e0fffc17 	ldw	r3,-16(fp)
   46164:	1885883a 	add	r2,r3,r2
   46168:	10800704 	addi	r2,r2,28
   4616c:	10800003 	ldbu	r2,0(r2)
   46170:	1007883a 	mov	r3,r2
   46174:	e0bffd17 	ldw	r2,-12(fp)
   46178:	10c00005 	stb	r3,0(r2)
   4617c:	e0bffd17 	ldw	r2,-12(fp)
   46180:	10800044 	addi	r2,r2,1
   46184:	e0bffd15 	stw	r2,-12(fp)
   46188:	e0bffc17 	ldw	r2,-16(fp)
   4618c:	10800217 	ldw	r2,8(r2)
   46190:	10800044 	addi	r2,r2,1
   46194:	10c00fcc 	andi	r3,r2,63
   46198:	e0bffc17 	ldw	r2,-16(fp)
   4619c:	10c00215 	stw	r3,8(r2)
   461a0:	e0fff517 	ldw	r3,-44(fp)
   461a4:	e0bffe17 	ldw	r2,-8(fp)
   461a8:	1880050e 	bge	r3,r2,461c0 <altera_avalon_uart_read+0xb4>
   461ac:	e0bffc17 	ldw	r2,-16(fp)
   461b0:	10c00217 	ldw	r3,8(r2)
   461b4:	e0bffc17 	ldw	r2,-16(fp)
   461b8:	10800317 	ldw	r2,12(r2)
   461bc:	18bfe31e 	bne	r3,r2,4614c <_gp+0xffff5194>
   461c0:	e0bff517 	ldw	r2,-44(fp)
   461c4:	1000241e 	bne	r2,zero,46258 <altera_avalon_uart_read+0x14c>
   461c8:	e0bffc17 	ldw	r2,-16(fp)
   461cc:	10c00217 	ldw	r3,8(r2)
   461d0:	e0bffc17 	ldw	r2,-16(fp)
   461d4:	10800317 	ldw	r2,12(r2)
   461d8:	18801f1e 	bne	r3,r2,46258 <altera_avalon_uart_read+0x14c>
   461dc:	e0bff617 	ldw	r2,-40(fp)
   461e0:	1000061e 	bne	r2,zero,461fc <altera_avalon_uart_read+0xf0>
   461e4:	00460bc0 	call	460bc <alt_get_errno>
   461e8:	00c002c4 	movi	r3,11
   461ec:	10c00015 	stw	r3,0(r2)
   461f0:	00800044 	movi	r2,1
   461f4:	e0bff405 	stb	r2,-48(fp)
   461f8:	00001b06 	br	46268 <altera_avalon_uart_read+0x15c>
   461fc:	0005303a 	rdctl	r2,status
   46200:	e0bff815 	stw	r2,-32(fp)
   46204:	e0fff817 	ldw	r3,-32(fp)
   46208:	00bfff84 	movi	r2,-2
   4620c:	1884703a 	and	r2,r3,r2
   46210:	1001703a 	wrctl	status,r2
   46214:	e0bff817 	ldw	r2,-32(fp)
   46218:	e0bff715 	stw	r2,-36(fp)
   4621c:	e0bffc17 	ldw	r2,-16(fp)
   46220:	10800117 	ldw	r2,4(r2)
   46224:	10c02014 	ori	r3,r2,128
   46228:	e0bffc17 	ldw	r2,-16(fp)
   4622c:	10c00115 	stw	r3,4(r2)
   46230:	e0bffc17 	ldw	r2,-16(fp)
   46234:	10800017 	ldw	r2,0(r2)
   46238:	10800304 	addi	r2,r2,12
   4623c:	e0fffc17 	ldw	r3,-16(fp)
   46240:	18c00117 	ldw	r3,4(r3)
   46244:	10c00035 	stwio	r3,0(r2)
   46248:	e0bff717 	ldw	r2,-36(fp)
   4624c:	e0bff915 	stw	r2,-28(fp)
   46250:	e0bff917 	ldw	r2,-28(fp)
   46254:	1001703a 	wrctl	status,r2
   46258:	e0bff517 	ldw	r2,-44(fp)
   4625c:	1000021e 	bne	r2,zero,46268 <altera_avalon_uart_read+0x15c>
   46260:	e0bffe17 	ldw	r2,-8(fp)
   46264:	103fce1e 	bne	r2,zero,461a0 <_gp+0xffff51e8>
   46268:	0005303a 	rdctl	r2,status
   4626c:	e0bffa15 	stw	r2,-24(fp)
   46270:	e0fffa17 	ldw	r3,-24(fp)
   46274:	00bfff84 	movi	r2,-2
   46278:	1884703a 	and	r2,r3,r2
   4627c:	1001703a 	wrctl	status,r2
   46280:	e0bffa17 	ldw	r2,-24(fp)
   46284:	e0bff715 	stw	r2,-36(fp)
   46288:	e0bffc17 	ldw	r2,-16(fp)
   4628c:	10800117 	ldw	r2,4(r2)
   46290:	10c02014 	ori	r3,r2,128
   46294:	e0bffc17 	ldw	r2,-16(fp)
   46298:	10c00115 	stw	r3,4(r2)
   4629c:	e0bffc17 	ldw	r2,-16(fp)
   462a0:	10800017 	ldw	r2,0(r2)
   462a4:	10800304 	addi	r2,r2,12
   462a8:	e0fffc17 	ldw	r3,-16(fp)
   462ac:	18c00117 	ldw	r3,4(r3)
   462b0:	10c00035 	stwio	r3,0(r2)
   462b4:	e0bff717 	ldw	r2,-36(fp)
   462b8:	e0bffb15 	stw	r2,-20(fp)
   462bc:	e0bffb17 	ldw	r2,-20(fp)
   462c0:	1001703a 	wrctl	status,r2
   462c4:	e0bff403 	ldbu	r2,-48(fp)
   462c8:	10000226 	beq	r2,zero,462d4 <altera_avalon_uart_read+0x1c8>
   462cc:	00bffd44 	movi	r2,-11
   462d0:	00000106 	br	462d8 <altera_avalon_uart_read+0x1cc>
   462d4:	e0bff517 	ldw	r2,-44(fp)
   462d8:	e037883a 	mov	sp,fp
   462dc:	dfc00117 	ldw	ra,4(sp)
   462e0:	df000017 	ldw	fp,0(sp)
   462e4:	dec00204 	addi	sp,sp,8
   462e8:	f800283a 	ret

000462ec <alt_get_errno>:
   462ec:	defffe04 	addi	sp,sp,-8
   462f0:	dfc00115 	stw	ra,4(sp)
   462f4:	df000015 	stw	fp,0(sp)
   462f8:	d839883a 	mov	fp,sp
   462fc:	00800174 	movhi	r2,5
   46300:	10a3fc04 	addi	r2,r2,-28688
   46304:	10800017 	ldw	r2,0(r2)
   46308:	10000526 	beq	r2,zero,46320 <alt_get_errno+0x34>
   4630c:	00800174 	movhi	r2,5
   46310:	10a3fc04 	addi	r2,r2,-28688
   46314:	10800017 	ldw	r2,0(r2)
   46318:	103ee83a 	callr	r2
   4631c:	00000206 	br	46328 <alt_get_errno+0x3c>
   46320:	00800174 	movhi	r2,5
   46324:	10a40804 	addi	r2,r2,-28640
   46328:	e037883a 	mov	sp,fp
   4632c:	dfc00117 	ldw	ra,4(sp)
   46330:	df000017 	ldw	fp,0(sp)
   46334:	dec00204 	addi	sp,sp,8
   46338:	f800283a 	ret

0004633c <altera_avalon_uart_write>:
   4633c:	defff204 	addi	sp,sp,-56
   46340:	dfc00d15 	stw	ra,52(sp)
   46344:	df000c15 	stw	fp,48(sp)
   46348:	df000c04 	addi	fp,sp,48
   4634c:	e13ffc15 	stw	r4,-16(fp)
   46350:	e17ffd15 	stw	r5,-12(fp)
   46354:	e1bffe15 	stw	r6,-8(fp)
   46358:	e1ffff15 	stw	r7,-4(fp)
   4635c:	e0bffe17 	ldw	r2,-8(fp)
   46360:	e0bff415 	stw	r2,-48(fp)
   46364:	e0bfff17 	ldw	r2,-4(fp)
   46368:	1090000c 	andi	r2,r2,16384
   4636c:	e0bff515 	stw	r2,-44(fp)
   46370:	00003b06 	br	46460 <altera_avalon_uart_write+0x124>
   46374:	e0bffc17 	ldw	r2,-16(fp)
   46378:	10800517 	ldw	r2,20(r2)
   4637c:	10800044 	addi	r2,r2,1
   46380:	10800fcc 	andi	r2,r2,63
   46384:	e0bff615 	stw	r2,-40(fp)
   46388:	e0bffc17 	ldw	r2,-16(fp)
   4638c:	10c00417 	ldw	r3,16(r2)
   46390:	e0bff617 	ldw	r2,-40(fp)
   46394:	1880211e 	bne	r3,r2,4641c <altera_avalon_uart_write+0xe0>
   46398:	e0bff517 	ldw	r2,-44(fp)
   4639c:	10000426 	beq	r2,zero,463b0 <altera_avalon_uart_write+0x74>
   463a0:	00462ec0 	call	462ec <alt_get_errno>
   463a4:	00c002c4 	movi	r3,11
   463a8:	10c00015 	stw	r3,0(r2)
   463ac:	00002e06 	br	46468 <altera_avalon_uart_write+0x12c>
   463b0:	0005303a 	rdctl	r2,status
   463b4:	e0bff815 	stw	r2,-32(fp)
   463b8:	e0fff817 	ldw	r3,-32(fp)
   463bc:	00bfff84 	movi	r2,-2
   463c0:	1884703a 	and	r2,r3,r2
   463c4:	1001703a 	wrctl	status,r2
   463c8:	e0bff817 	ldw	r2,-32(fp)
   463cc:	e0bff715 	stw	r2,-36(fp)
   463d0:	e0bffc17 	ldw	r2,-16(fp)
   463d4:	10800117 	ldw	r2,4(r2)
   463d8:	10c11014 	ori	r3,r2,1088
   463dc:	e0bffc17 	ldw	r2,-16(fp)
   463e0:	10c00115 	stw	r3,4(r2)
   463e4:	e0bffc17 	ldw	r2,-16(fp)
   463e8:	10800017 	ldw	r2,0(r2)
   463ec:	10800304 	addi	r2,r2,12
   463f0:	e0fffc17 	ldw	r3,-16(fp)
   463f4:	18c00117 	ldw	r3,4(r3)
   463f8:	10c00035 	stwio	r3,0(r2)
   463fc:	e0bff717 	ldw	r2,-36(fp)
   46400:	e0bff915 	stw	r2,-28(fp)
   46404:	e0bff917 	ldw	r2,-28(fp)
   46408:	1001703a 	wrctl	status,r2
   4640c:	e0bffc17 	ldw	r2,-16(fp)
   46410:	10c00417 	ldw	r3,16(r2)
   46414:	e0bff617 	ldw	r2,-40(fp)
   46418:	18bffc26 	beq	r3,r2,4640c <_gp+0xffff5454>
   4641c:	e0bff417 	ldw	r2,-48(fp)
   46420:	10bfffc4 	addi	r2,r2,-1
   46424:	e0bff415 	stw	r2,-48(fp)
   46428:	e0bffc17 	ldw	r2,-16(fp)
   4642c:	10800517 	ldw	r2,20(r2)
   46430:	e0fffd17 	ldw	r3,-12(fp)
   46434:	18c00003 	ldbu	r3,0(r3)
   46438:	e13ffc17 	ldw	r4,-16(fp)
   4643c:	2085883a 	add	r2,r4,r2
   46440:	10801704 	addi	r2,r2,92
   46444:	10c00005 	stb	r3,0(r2)
   46448:	e0bffd17 	ldw	r2,-12(fp)
   4644c:	10800044 	addi	r2,r2,1
   46450:	e0bffd15 	stw	r2,-12(fp)
   46454:	e0bffc17 	ldw	r2,-16(fp)
   46458:	e0fff617 	ldw	r3,-40(fp)
   4645c:	10c00515 	stw	r3,20(r2)
   46460:	e0bff417 	ldw	r2,-48(fp)
   46464:	103fc31e 	bne	r2,zero,46374 <_gp+0xffff53bc>
   46468:	0005303a 	rdctl	r2,status
   4646c:	e0bffa15 	stw	r2,-24(fp)
   46470:	e0fffa17 	ldw	r3,-24(fp)
   46474:	00bfff84 	movi	r2,-2
   46478:	1884703a 	and	r2,r3,r2
   4647c:	1001703a 	wrctl	status,r2
   46480:	e0bffa17 	ldw	r2,-24(fp)
   46484:	e0bff715 	stw	r2,-36(fp)
   46488:	e0bffc17 	ldw	r2,-16(fp)
   4648c:	10800117 	ldw	r2,4(r2)
   46490:	10c11014 	ori	r3,r2,1088
   46494:	e0bffc17 	ldw	r2,-16(fp)
   46498:	10c00115 	stw	r3,4(r2)
   4649c:	e0bffc17 	ldw	r2,-16(fp)
   464a0:	10800017 	ldw	r2,0(r2)
   464a4:	10800304 	addi	r2,r2,12
   464a8:	e0fffc17 	ldw	r3,-16(fp)
   464ac:	18c00117 	ldw	r3,4(r3)
   464b0:	10c00035 	stwio	r3,0(r2)
   464b4:	e0bff717 	ldw	r2,-36(fp)
   464b8:	e0bffb15 	stw	r2,-20(fp)
   464bc:	e0bffb17 	ldw	r2,-20(fp)
   464c0:	1001703a 	wrctl	status,r2
   464c4:	e0fffe17 	ldw	r3,-8(fp)
   464c8:	e0bff417 	ldw	r2,-48(fp)
   464cc:	1885c83a 	sub	r2,r3,r2
   464d0:	e037883a 	mov	sp,fp
   464d4:	dfc00117 	ldw	ra,4(sp)
   464d8:	df000017 	ldw	fp,0(sp)
   464dc:	dec00204 	addi	sp,sp,8
   464e0:	f800283a 	ret

000464e4 <alt_alarm_start>:
   464e4:	defff504 	addi	sp,sp,-44
   464e8:	df000a15 	stw	fp,40(sp)
   464ec:	df000a04 	addi	fp,sp,40
   464f0:	e13ffc15 	stw	r4,-16(fp)
   464f4:	e17ffd15 	stw	r5,-12(fp)
   464f8:	e1bffe15 	stw	r6,-8(fp)
   464fc:	e1ffff15 	stw	r7,-4(fp)
   46500:	e03ff615 	stw	zero,-40(fp)
   46504:	00800174 	movhi	r2,5
   46508:	10a40d04 	addi	r2,r2,-28620
   4650c:	10800017 	ldw	r2,0(r2)
   46510:	10003f26 	beq	r2,zero,46610 <alt_alarm_start+0x12c>
   46514:	e0bffc17 	ldw	r2,-16(fp)
   46518:	10003b26 	beq	r2,zero,46608 <alt_alarm_start+0x124>
   4651c:	e0bffc17 	ldw	r2,-16(fp)
   46520:	e0fffe17 	ldw	r3,-8(fp)
   46524:	10c00315 	stw	r3,12(r2)
   46528:	e0bffc17 	ldw	r2,-16(fp)
   4652c:	e0ffff17 	ldw	r3,-4(fp)
   46530:	10c00515 	stw	r3,20(r2)
   46534:	0005303a 	rdctl	r2,status
   46538:	e0bff815 	stw	r2,-32(fp)
   4653c:	e0fff817 	ldw	r3,-32(fp)
   46540:	00bfff84 	movi	r2,-2
   46544:	1884703a 	and	r2,r3,r2
   46548:	1001703a 	wrctl	status,r2
   4654c:	e0bff817 	ldw	r2,-32(fp)
   46550:	e0bff715 	stw	r2,-36(fp)
   46554:	00800174 	movhi	r2,5
   46558:	10a40e04 	addi	r2,r2,-28616
   4655c:	10800017 	ldw	r2,0(r2)
   46560:	e0bff615 	stw	r2,-40(fp)
   46564:	e0fffd17 	ldw	r3,-12(fp)
   46568:	e0bff617 	ldw	r2,-40(fp)
   4656c:	1885883a 	add	r2,r3,r2
   46570:	10c00044 	addi	r3,r2,1
   46574:	e0bffc17 	ldw	r2,-16(fp)
   46578:	10c00215 	stw	r3,8(r2)
   4657c:	e0bffc17 	ldw	r2,-16(fp)
   46580:	10c00217 	ldw	r3,8(r2)
   46584:	e0bff617 	ldw	r2,-40(fp)
   46588:	1880042e 	bgeu	r3,r2,4659c <alt_alarm_start+0xb8>
   4658c:	e0bffc17 	ldw	r2,-16(fp)
   46590:	00c00044 	movi	r3,1
   46594:	10c00405 	stb	r3,16(r2)
   46598:	00000206 	br	465a4 <alt_alarm_start+0xc0>
   4659c:	e0bffc17 	ldw	r2,-16(fp)
   465a0:	10000405 	stb	zero,16(r2)
   465a4:	e0bffc17 	ldw	r2,-16(fp)
   465a8:	00c00174 	movhi	r3,5
   465ac:	18e3ff04 	addi	r3,r3,-28676
   465b0:	e0fff915 	stw	r3,-28(fp)
   465b4:	e0bffa15 	stw	r2,-24(fp)
   465b8:	e0bffa17 	ldw	r2,-24(fp)
   465bc:	e0fff917 	ldw	r3,-28(fp)
   465c0:	10c00115 	stw	r3,4(r2)
   465c4:	e0bff917 	ldw	r2,-28(fp)
   465c8:	10c00017 	ldw	r3,0(r2)
   465cc:	e0bffa17 	ldw	r2,-24(fp)
   465d0:	10c00015 	stw	r3,0(r2)
   465d4:	e0bff917 	ldw	r2,-28(fp)
   465d8:	10800017 	ldw	r2,0(r2)
   465dc:	e0fffa17 	ldw	r3,-24(fp)
   465e0:	10c00115 	stw	r3,4(r2)
   465e4:	e0bff917 	ldw	r2,-28(fp)
   465e8:	e0fffa17 	ldw	r3,-24(fp)
   465ec:	10c00015 	stw	r3,0(r2)
   465f0:	e0bff717 	ldw	r2,-36(fp)
   465f4:	e0bffb15 	stw	r2,-20(fp)
   465f8:	e0bffb17 	ldw	r2,-20(fp)
   465fc:	1001703a 	wrctl	status,r2
   46600:	0005883a 	mov	r2,zero
   46604:	00000306 	br	46614 <alt_alarm_start+0x130>
   46608:	00bffa84 	movi	r2,-22
   4660c:	00000106 	br	46614 <alt_alarm_start+0x130>
   46610:	00bfde84 	movi	r2,-134
   46614:	e037883a 	mov	sp,fp
   46618:	df000017 	ldw	fp,0(sp)
   4661c:	dec00104 	addi	sp,sp,4
   46620:	f800283a 	ret

00046624 <alt_busy_sleep>:
   46624:	defffa04 	addi	sp,sp,-24
   46628:	dfc00515 	stw	ra,20(sp)
   4662c:	df000415 	stw	fp,16(sp)
   46630:	df000404 	addi	fp,sp,16
   46634:	e13fff15 	stw	r4,-4(fp)
   46638:	00800244 	movi	r2,9
   4663c:	e0bffd15 	stw	r2,-12(fp)
   46640:	e13ffd17 	ldw	r4,-12(fp)
   46644:	014003f4 	movhi	r5,15
   46648:	29509004 	addi	r5,r5,16960
   4664c:	0041ce40 	call	41ce4 <__mulsi3>
   46650:	0100bef4 	movhi	r4,763
   46654:	213c2004 	addi	r4,r4,-3968
   46658:	100b883a 	mov	r5,r2
   4665c:	0041cd40 	call	41cd4 <__udivsi3>
   46660:	01200034 	movhi	r4,32768
   46664:	213fffc4 	addi	r4,r4,-1
   46668:	100b883a 	mov	r5,r2
   4666c:	0041cd40 	call	41cd4 <__udivsi3>
   46670:	e13fff17 	ldw	r4,-4(fp)
   46674:	100b883a 	mov	r5,r2
   46678:	0041cd40 	call	41cd4 <__udivsi3>
   4667c:	e0bffe15 	stw	r2,-8(fp)
   46680:	e0bffe17 	ldw	r2,-8(fp)
   46684:	10002926 	beq	r2,zero,4672c <alt_busy_sleep+0x108>
   46688:	e03ffc15 	stw	zero,-16(fp)
   4668c:	00001606 	br	466e8 <alt_busy_sleep+0xc4>
   46690:	00a00034 	movhi	r2,32768
   46694:	10bfffc4 	addi	r2,r2,-1
   46698:	10bfffc4 	addi	r2,r2,-1
   4669c:	103ffe1e 	bne	r2,zero,46698 <_gp+0xffff56e0>
   466a0:	e13ffd17 	ldw	r4,-12(fp)
   466a4:	014003f4 	movhi	r5,15
   466a8:	29509004 	addi	r5,r5,16960
   466ac:	0041ce40 	call	41ce4 <__mulsi3>
   466b0:	0100bef4 	movhi	r4,763
   466b4:	213c2004 	addi	r4,r4,-3968
   466b8:	100b883a 	mov	r5,r2
   466bc:	0041cd40 	call	41cd4 <__udivsi3>
   466c0:	01200034 	movhi	r4,32768
   466c4:	213fffc4 	addi	r4,r4,-1
   466c8:	100b883a 	mov	r5,r2
   466cc:	0041cd40 	call	41cd4 <__udivsi3>
   466d0:	e0ffff17 	ldw	r3,-4(fp)
   466d4:	1885c83a 	sub	r2,r3,r2
   466d8:	e0bfff15 	stw	r2,-4(fp)
   466dc:	e0bffc17 	ldw	r2,-16(fp)
   466e0:	10800044 	addi	r2,r2,1
   466e4:	e0bffc15 	stw	r2,-16(fp)
   466e8:	e0fffc17 	ldw	r3,-16(fp)
   466ec:	e0bffe17 	ldw	r2,-8(fp)
   466f0:	18bfe716 	blt	r3,r2,46690 <_gp+0xffff56d8>
   466f4:	e13ffd17 	ldw	r4,-12(fp)
   466f8:	014003f4 	movhi	r5,15
   466fc:	29509004 	addi	r5,r5,16960
   46700:	0041ce40 	call	41ce4 <__mulsi3>
   46704:	0100bef4 	movhi	r4,763
   46708:	213c2004 	addi	r4,r4,-3968
   4670c:	100b883a 	mov	r5,r2
   46710:	0041cd40 	call	41cd4 <__udivsi3>
   46714:	1009883a 	mov	r4,r2
   46718:	e17fff17 	ldw	r5,-4(fp)
   4671c:	0041ce40 	call	41ce4 <__mulsi3>
   46720:	10bfffc4 	addi	r2,r2,-1
   46724:	103ffe1e 	bne	r2,zero,46720 <_gp+0xffff5768>
   46728:	00000d06 	br	46760 <alt_busy_sleep+0x13c>
   4672c:	e13ffd17 	ldw	r4,-12(fp)
   46730:	014003f4 	movhi	r5,15
   46734:	29509004 	addi	r5,r5,16960
   46738:	0041ce40 	call	41ce4 <__mulsi3>
   4673c:	0100bef4 	movhi	r4,763
   46740:	213c2004 	addi	r4,r4,-3968
   46744:	100b883a 	mov	r5,r2
   46748:	0041cd40 	call	41cd4 <__udivsi3>
   4674c:	1009883a 	mov	r4,r2
   46750:	e17fff17 	ldw	r5,-4(fp)
   46754:	0041ce40 	call	41ce4 <__mulsi3>
   46758:	10bfffc4 	addi	r2,r2,-1
   4675c:	00bffe16 	blt	zero,r2,46758 <_gp+0xffff57a0>
   46760:	0005883a 	mov	r2,zero
   46764:	e037883a 	mov	sp,fp
   46768:	dfc00117 	ldw	ra,4(sp)
   4676c:	df000017 	ldw	fp,0(sp)
   46770:	dec00204 	addi	sp,sp,8
   46774:	f800283a 	ret

00046778 <alt_get_errno>:
   46778:	defffe04 	addi	sp,sp,-8
   4677c:	dfc00115 	stw	ra,4(sp)
   46780:	df000015 	stw	fp,0(sp)
   46784:	d839883a 	mov	fp,sp
   46788:	00800174 	movhi	r2,5
   4678c:	10a3fc04 	addi	r2,r2,-28688
   46790:	10800017 	ldw	r2,0(r2)
   46794:	10000526 	beq	r2,zero,467ac <alt_get_errno+0x34>
   46798:	00800174 	movhi	r2,5
   4679c:	10a3fc04 	addi	r2,r2,-28688
   467a0:	10800017 	ldw	r2,0(r2)
   467a4:	103ee83a 	callr	r2
   467a8:	00000206 	br	467b4 <alt_get_errno+0x3c>
   467ac:	00800174 	movhi	r2,5
   467b0:	10a40804 	addi	r2,r2,-28640
   467b4:	e037883a 	mov	sp,fp
   467b8:	dfc00117 	ldw	ra,4(sp)
   467bc:	df000017 	ldw	fp,0(sp)
   467c0:	dec00204 	addi	sp,sp,8
   467c4:	f800283a 	ret

000467c8 <alt_dev_llist_insert>:
   467c8:	defffa04 	addi	sp,sp,-24
   467cc:	dfc00515 	stw	ra,20(sp)
   467d0:	df000415 	stw	fp,16(sp)
   467d4:	df000404 	addi	fp,sp,16
   467d8:	e13ffe15 	stw	r4,-8(fp)
   467dc:	e17fff15 	stw	r5,-4(fp)
   467e0:	e0bffe17 	ldw	r2,-8(fp)
   467e4:	10000326 	beq	r2,zero,467f4 <alt_dev_llist_insert+0x2c>
   467e8:	e0bffe17 	ldw	r2,-8(fp)
   467ec:	10800217 	ldw	r2,8(r2)
   467f0:	1000061e 	bne	r2,zero,4680c <alt_dev_llist_insert+0x44>
   467f4:	00467780 	call	46778 <alt_get_errno>
   467f8:	1007883a 	mov	r3,r2
   467fc:	00800584 	movi	r2,22
   46800:	18800015 	stw	r2,0(r3)
   46804:	00bffa84 	movi	r2,-22
   46808:	00001306 	br	46858 <alt_dev_llist_insert+0x90>
   4680c:	e0bffe17 	ldw	r2,-8(fp)
   46810:	e0ffff17 	ldw	r3,-4(fp)
   46814:	e0fffc15 	stw	r3,-16(fp)
   46818:	e0bffd15 	stw	r2,-12(fp)
   4681c:	e0bffd17 	ldw	r2,-12(fp)
   46820:	e0fffc17 	ldw	r3,-16(fp)
   46824:	10c00115 	stw	r3,4(r2)
   46828:	e0bffc17 	ldw	r2,-16(fp)
   4682c:	10c00017 	ldw	r3,0(r2)
   46830:	e0bffd17 	ldw	r2,-12(fp)
   46834:	10c00015 	stw	r3,0(r2)
   46838:	e0bffc17 	ldw	r2,-16(fp)
   4683c:	10800017 	ldw	r2,0(r2)
   46840:	e0fffd17 	ldw	r3,-12(fp)
   46844:	10c00115 	stw	r3,4(r2)
   46848:	e0bffc17 	ldw	r2,-16(fp)
   4684c:	e0fffd17 	ldw	r3,-12(fp)
   46850:	10c00015 	stw	r3,0(r2)
   46854:	0005883a 	mov	r2,zero
   46858:	e037883a 	mov	sp,fp
   4685c:	dfc00117 	ldw	ra,4(sp)
   46860:	df000017 	ldw	fp,0(sp)
   46864:	dec00204 	addi	sp,sp,8
   46868:	f800283a 	ret

0004686c <alt_open_fd>:
   4686c:	defff804 	addi	sp,sp,-32
   46870:	dfc00715 	stw	ra,28(sp)
   46874:	df000615 	stw	fp,24(sp)
   46878:	dc000515 	stw	r16,20(sp)
   4687c:	df000504 	addi	fp,sp,20
   46880:	e13ffc15 	stw	r4,-16(fp)
   46884:	e17ffd15 	stw	r5,-12(fp)
   46888:	e1bffe15 	stw	r6,-8(fp)
   4688c:	e1ffff15 	stw	r7,-4(fp)
   46890:	e13ffd17 	ldw	r4,-12(fp)
   46894:	e17ffe17 	ldw	r5,-8(fp)
   46898:	e1bfff17 	ldw	r6,-4(fp)
   4689c:	0046b040 	call	46b04 <open>
   468a0:	e0bffb15 	stw	r2,-20(fp)
   468a4:	e0bffb17 	ldw	r2,-20(fp)
   468a8:	10002216 	blt	r2,zero,46934 <alt_open_fd+0xc8>
   468ac:	04000134 	movhi	r16,4
   468b0:	841f4504 	addi	r16,r16,32020
   468b4:	e0bffb17 	ldw	r2,-20(fp)
   468b8:	1009883a 	mov	r4,r2
   468bc:	01400304 	movi	r5,12
   468c0:	0041ce40 	call	41ce4 <__mulsi3>
   468c4:	8085883a 	add	r2,r16,r2
   468c8:	10c00017 	ldw	r3,0(r2)
   468cc:	e0bffc17 	ldw	r2,-16(fp)
   468d0:	10c00015 	stw	r3,0(r2)
   468d4:	04000134 	movhi	r16,4
   468d8:	841f4504 	addi	r16,r16,32020
   468dc:	e0bffb17 	ldw	r2,-20(fp)
   468e0:	1009883a 	mov	r4,r2
   468e4:	01400304 	movi	r5,12
   468e8:	0041ce40 	call	41ce4 <__mulsi3>
   468ec:	8085883a 	add	r2,r16,r2
   468f0:	10800104 	addi	r2,r2,4
   468f4:	10c00017 	ldw	r3,0(r2)
   468f8:	e0bffc17 	ldw	r2,-16(fp)
   468fc:	10c00115 	stw	r3,4(r2)
   46900:	04000134 	movhi	r16,4
   46904:	841f4504 	addi	r16,r16,32020
   46908:	e0bffb17 	ldw	r2,-20(fp)
   4690c:	1009883a 	mov	r4,r2
   46910:	01400304 	movi	r5,12
   46914:	0041ce40 	call	41ce4 <__mulsi3>
   46918:	8085883a 	add	r2,r16,r2
   4691c:	10800204 	addi	r2,r2,8
   46920:	10c00017 	ldw	r3,0(r2)
   46924:	e0bffc17 	ldw	r2,-16(fp)
   46928:	10c00215 	stw	r3,8(r2)
   4692c:	e13ffb17 	ldw	r4,-20(fp)
   46930:	0044e300 	call	44e30 <alt_release_fd>
   46934:	e037883a 	mov	sp,fp
   46938:	dfc00217 	ldw	ra,8(sp)
   4693c:	df000117 	ldw	fp,4(sp)
   46940:	dc000017 	ldw	r16,0(sp)
   46944:	dec00304 	addi	sp,sp,12
   46948:	f800283a 	ret

0004694c <alt_io_redirect>:
   4694c:	defffb04 	addi	sp,sp,-20
   46950:	dfc00415 	stw	ra,16(sp)
   46954:	df000315 	stw	fp,12(sp)
   46958:	df000304 	addi	fp,sp,12
   4695c:	e13ffd15 	stw	r4,-12(fp)
   46960:	e17ffe15 	stw	r5,-8(fp)
   46964:	e1bfff15 	stw	r6,-4(fp)
   46968:	01000134 	movhi	r4,4
   4696c:	211f4804 	addi	r4,r4,32032
   46970:	e17ffd17 	ldw	r5,-12(fp)
   46974:	01800044 	movi	r6,1
   46978:	01c07fc4 	movi	r7,511
   4697c:	004686c0 	call	4686c <alt_open_fd>
   46980:	01000134 	movhi	r4,4
   46984:	211f4504 	addi	r4,r4,32020
   46988:	e17ffe17 	ldw	r5,-8(fp)
   4698c:	000d883a 	mov	r6,zero
   46990:	01c07fc4 	movi	r7,511
   46994:	004686c0 	call	4686c <alt_open_fd>
   46998:	01000134 	movhi	r4,4
   4699c:	211f4b04 	addi	r4,r4,32044
   469a0:	e17fff17 	ldw	r5,-4(fp)
   469a4:	01800044 	movi	r6,1
   469a8:	01c07fc4 	movi	r7,511
   469ac:	004686c0 	call	4686c <alt_open_fd>
   469b0:	e037883a 	mov	sp,fp
   469b4:	dfc00117 	ldw	ra,4(sp)
   469b8:	df000017 	ldw	fp,0(sp)
   469bc:	dec00204 	addi	sp,sp,8
   469c0:	f800283a 	ret

000469c4 <alt_get_errno>:
   469c4:	defffe04 	addi	sp,sp,-8
   469c8:	dfc00115 	stw	ra,4(sp)
   469cc:	df000015 	stw	fp,0(sp)
   469d0:	d839883a 	mov	fp,sp
   469d4:	00800174 	movhi	r2,5
   469d8:	10a3fc04 	addi	r2,r2,-28688
   469dc:	10800017 	ldw	r2,0(r2)
   469e0:	10000526 	beq	r2,zero,469f8 <alt_get_errno+0x34>
   469e4:	00800174 	movhi	r2,5
   469e8:	10a3fc04 	addi	r2,r2,-28688
   469ec:	10800017 	ldw	r2,0(r2)
   469f0:	103ee83a 	callr	r2
   469f4:	00000206 	br	46a00 <alt_get_errno+0x3c>
   469f8:	00800174 	movhi	r2,5
   469fc:	10a40804 	addi	r2,r2,-28640
   46a00:	e037883a 	mov	sp,fp
   46a04:	dfc00117 	ldw	ra,4(sp)
   46a08:	df000017 	ldw	fp,0(sp)
   46a0c:	dec00204 	addi	sp,sp,8
   46a10:	f800283a 	ret

00046a14 <alt_file_locked>:
   46a14:	defffb04 	addi	sp,sp,-20
   46a18:	dfc00415 	stw	ra,16(sp)
   46a1c:	df000315 	stw	fp,12(sp)
   46a20:	dc000215 	stw	r16,8(sp)
   46a24:	df000204 	addi	fp,sp,8
   46a28:	e13fff15 	stw	r4,-4(fp)
   46a2c:	e0bfff17 	ldw	r2,-4(fp)
   46a30:	10800217 	ldw	r2,8(r2)
   46a34:	10d00034 	orhi	r3,r2,16384
   46a38:	e0bfff17 	ldw	r2,-4(fp)
   46a3c:	10c00215 	stw	r3,8(r2)
   46a40:	e03ffe15 	stw	zero,-8(fp)
   46a44:	00002206 	br	46ad0 <alt_file_locked+0xbc>
   46a48:	04000134 	movhi	r16,4
   46a4c:	841f4504 	addi	r16,r16,32020
   46a50:	e0bffe17 	ldw	r2,-8(fp)
   46a54:	1009883a 	mov	r4,r2
   46a58:	01400304 	movi	r5,12
   46a5c:	0041ce40 	call	41ce4 <__mulsi3>
   46a60:	8085883a 	add	r2,r16,r2
   46a64:	10c00017 	ldw	r3,0(r2)
   46a68:	e0bfff17 	ldw	r2,-4(fp)
   46a6c:	10800017 	ldw	r2,0(r2)
   46a70:	1880141e 	bne	r3,r2,46ac4 <alt_file_locked+0xb0>
   46a74:	04000134 	movhi	r16,4
   46a78:	841f4504 	addi	r16,r16,32020
   46a7c:	e0bffe17 	ldw	r2,-8(fp)
   46a80:	1009883a 	mov	r4,r2
   46a84:	01400304 	movi	r5,12
   46a88:	0041ce40 	call	41ce4 <__mulsi3>
   46a8c:	8085883a 	add	r2,r16,r2
   46a90:	10800204 	addi	r2,r2,8
   46a94:	10800017 	ldw	r2,0(r2)
   46a98:	10000a0e 	bge	r2,zero,46ac4 <alt_file_locked+0xb0>
   46a9c:	e13ffe17 	ldw	r4,-8(fp)
   46aa0:	01400304 	movi	r5,12
   46aa4:	0041ce40 	call	41ce4 <__mulsi3>
   46aa8:	00c00134 	movhi	r3,4
   46aac:	18df4504 	addi	r3,r3,32020
   46ab0:	10c7883a 	add	r3,r2,r3
   46ab4:	e0bfff17 	ldw	r2,-4(fp)
   46ab8:	18800226 	beq	r3,r2,46ac4 <alt_file_locked+0xb0>
   46abc:	00bffcc4 	movi	r2,-13
   46ac0:	00000a06 	br	46aec <alt_file_locked+0xd8>
   46ac4:	e0bffe17 	ldw	r2,-8(fp)
   46ac8:	10800044 	addi	r2,r2,1
   46acc:	e0bffe15 	stw	r2,-8(fp)
   46ad0:	00800174 	movhi	r2,5
   46ad4:	10a3fb04 	addi	r2,r2,-28692
   46ad8:	10800017 	ldw	r2,0(r2)
   46adc:	1007883a 	mov	r3,r2
   46ae0:	e0bffe17 	ldw	r2,-8(fp)
   46ae4:	18bfd82e 	bgeu	r3,r2,46a48 <_gp+0xffff5a90>
   46ae8:	0005883a 	mov	r2,zero
   46aec:	e037883a 	mov	sp,fp
   46af0:	dfc00217 	ldw	ra,8(sp)
   46af4:	df000117 	ldw	fp,4(sp)
   46af8:	dc000017 	ldw	r16,0(sp)
   46afc:	dec00304 	addi	sp,sp,12
   46b00:	f800283a 	ret

00046b04 <open>:
   46b04:	defff604 	addi	sp,sp,-40
   46b08:	dfc00915 	stw	ra,36(sp)
   46b0c:	df000815 	stw	fp,32(sp)
   46b10:	df000804 	addi	fp,sp,32
   46b14:	e13ffd15 	stw	r4,-12(fp)
   46b18:	e17ffe15 	stw	r5,-8(fp)
   46b1c:	e1bfff15 	stw	r6,-4(fp)
   46b20:	00bfffc4 	movi	r2,-1
   46b24:	e0bff915 	stw	r2,-28(fp)
   46b28:	00bffb44 	movi	r2,-19
   46b2c:	e0bffa15 	stw	r2,-24(fp)
   46b30:	e03ffb15 	stw	zero,-20(fp)
   46b34:	e13ffd17 	ldw	r4,-12(fp)
   46b38:	01400174 	movhi	r5,5
   46b3c:	2963f904 	addi	r5,r5,-28700
   46b40:	0046e180 	call	46e18 <alt_find_dev>
   46b44:	e0bff815 	stw	r2,-32(fp)
   46b48:	e0bff817 	ldw	r2,-32(fp)
   46b4c:	1000051e 	bne	r2,zero,46b64 <open+0x60>
   46b50:	e13ffd17 	ldw	r4,-12(fp)
   46b54:	0046ea80 	call	46ea8 <alt_find_file>
   46b58:	e0bff815 	stw	r2,-32(fp)
   46b5c:	00800044 	movi	r2,1
   46b60:	e0bffb15 	stw	r2,-20(fp)
   46b64:	e0bff817 	ldw	r2,-32(fp)
   46b68:	10002a26 	beq	r2,zero,46c14 <open+0x110>
   46b6c:	e13ff817 	ldw	r4,-32(fp)
   46b70:	0046fbc0 	call	46fbc <alt_get_fd>
   46b74:	e0bff915 	stw	r2,-28(fp)
   46b78:	e0bff917 	ldw	r2,-28(fp)
   46b7c:	1000030e 	bge	r2,zero,46b8c <open+0x88>
   46b80:	e0bff917 	ldw	r2,-28(fp)
   46b84:	e0bffa15 	stw	r2,-24(fp)
   46b88:	00002406 	br	46c1c <open+0x118>
   46b8c:	e13ff917 	ldw	r4,-28(fp)
   46b90:	01400304 	movi	r5,12
   46b94:	0041ce40 	call	41ce4 <__mulsi3>
   46b98:	00c00134 	movhi	r3,4
   46b9c:	18df4504 	addi	r3,r3,32020
   46ba0:	10c5883a 	add	r2,r2,r3
   46ba4:	e0bffc15 	stw	r2,-16(fp)
   46ba8:	e0fffe17 	ldw	r3,-8(fp)
   46bac:	00900034 	movhi	r2,16384
   46bb0:	10bfffc4 	addi	r2,r2,-1
   46bb4:	1886703a 	and	r3,r3,r2
   46bb8:	e0bffc17 	ldw	r2,-16(fp)
   46bbc:	10c00215 	stw	r3,8(r2)
   46bc0:	e0bffb17 	ldw	r2,-20(fp)
   46bc4:	1000051e 	bne	r2,zero,46bdc <open+0xd8>
   46bc8:	e13ffc17 	ldw	r4,-16(fp)
   46bcc:	0046a140 	call	46a14 <alt_file_locked>
   46bd0:	e0bffa15 	stw	r2,-24(fp)
   46bd4:	e0bffa17 	ldw	r2,-24(fp)
   46bd8:	10001016 	blt	r2,zero,46c1c <open+0x118>
   46bdc:	e0bff817 	ldw	r2,-32(fp)
   46be0:	10800317 	ldw	r2,12(r2)
   46be4:	10000826 	beq	r2,zero,46c08 <open+0x104>
   46be8:	e0bff817 	ldw	r2,-32(fp)
   46bec:	10800317 	ldw	r2,12(r2)
   46bf0:	e13ffc17 	ldw	r4,-16(fp)
   46bf4:	e17ffd17 	ldw	r5,-12(fp)
   46bf8:	e1bffe17 	ldw	r6,-8(fp)
   46bfc:	e1ffff17 	ldw	r7,-4(fp)
   46c00:	103ee83a 	callr	r2
   46c04:	00000106 	br	46c0c <open+0x108>
   46c08:	0005883a 	mov	r2,zero
   46c0c:	e0bffa15 	stw	r2,-24(fp)
   46c10:	00000206 	br	46c1c <open+0x118>
   46c14:	00bffb44 	movi	r2,-19
   46c18:	e0bffa15 	stw	r2,-24(fp)
   46c1c:	e0bffa17 	ldw	r2,-24(fp)
   46c20:	1000080e 	bge	r2,zero,46c44 <open+0x140>
   46c24:	e13ff917 	ldw	r4,-28(fp)
   46c28:	0044e300 	call	44e30 <alt_release_fd>
   46c2c:	00469c40 	call	469c4 <alt_get_errno>
   46c30:	e0fffa17 	ldw	r3,-24(fp)
   46c34:	00c7c83a 	sub	r3,zero,r3
   46c38:	10c00015 	stw	r3,0(r2)
   46c3c:	00bfffc4 	movi	r2,-1
   46c40:	00000106 	br	46c48 <open+0x144>
   46c44:	e0bff917 	ldw	r2,-28(fp)
   46c48:	e037883a 	mov	sp,fp
   46c4c:	dfc00117 	ldw	ra,4(sp)
   46c50:	df000017 	ldw	fp,0(sp)
   46c54:	dec00204 	addi	sp,sp,8
   46c58:	f800283a 	ret

00046c5c <alt_alarm_stop>:
   46c5c:	defffa04 	addi	sp,sp,-24
   46c60:	df000515 	stw	fp,20(sp)
   46c64:	df000504 	addi	fp,sp,20
   46c68:	e13fff15 	stw	r4,-4(fp)
   46c6c:	0005303a 	rdctl	r2,status
   46c70:	e0bffc15 	stw	r2,-16(fp)
   46c74:	e0fffc17 	ldw	r3,-16(fp)
   46c78:	00bfff84 	movi	r2,-2
   46c7c:	1884703a 	and	r2,r3,r2
   46c80:	1001703a 	wrctl	status,r2
   46c84:	e0bffc17 	ldw	r2,-16(fp)
   46c88:	e0bffb15 	stw	r2,-20(fp)
   46c8c:	e0bfff17 	ldw	r2,-4(fp)
   46c90:	e0bffd15 	stw	r2,-12(fp)
   46c94:	e0bffd17 	ldw	r2,-12(fp)
   46c98:	10800017 	ldw	r2,0(r2)
   46c9c:	e0fffd17 	ldw	r3,-12(fp)
   46ca0:	18c00117 	ldw	r3,4(r3)
   46ca4:	10c00115 	stw	r3,4(r2)
   46ca8:	e0bffd17 	ldw	r2,-12(fp)
   46cac:	10800117 	ldw	r2,4(r2)
   46cb0:	e0fffd17 	ldw	r3,-12(fp)
   46cb4:	18c00017 	ldw	r3,0(r3)
   46cb8:	10c00015 	stw	r3,0(r2)
   46cbc:	e0bffd17 	ldw	r2,-12(fp)
   46cc0:	e0fffd17 	ldw	r3,-12(fp)
   46cc4:	10c00115 	stw	r3,4(r2)
   46cc8:	e0bffd17 	ldw	r2,-12(fp)
   46ccc:	e0fffd17 	ldw	r3,-12(fp)
   46cd0:	10c00015 	stw	r3,0(r2)
   46cd4:	e0bffb17 	ldw	r2,-20(fp)
   46cd8:	e0bffe15 	stw	r2,-8(fp)
   46cdc:	e0bffe17 	ldw	r2,-8(fp)
   46ce0:	1001703a 	wrctl	status,r2
   46ce4:	e037883a 	mov	sp,fp
   46ce8:	df000017 	ldw	fp,0(sp)
   46cec:	dec00104 	addi	sp,sp,4
   46cf0:	f800283a 	ret

00046cf4 <alt_tick>:
   46cf4:	defffb04 	addi	sp,sp,-20
   46cf8:	dfc00415 	stw	ra,16(sp)
   46cfc:	df000315 	stw	fp,12(sp)
   46d00:	df000304 	addi	fp,sp,12
   46d04:	d0a01117 	ldw	r2,-32700(gp)
   46d08:	e0bffd15 	stw	r2,-12(fp)
   46d0c:	d0a02017 	ldw	r2,-32640(gp)
   46d10:	10800044 	addi	r2,r2,1
   46d14:	d0a02015 	stw	r2,-32640(gp)
   46d18:	00002e06 	br	46dd4 <alt_tick+0xe0>
   46d1c:	e0bffd17 	ldw	r2,-12(fp)
   46d20:	10800017 	ldw	r2,0(r2)
   46d24:	e0bffe15 	stw	r2,-8(fp)
   46d28:	e0bffd17 	ldw	r2,-12(fp)
   46d2c:	10800403 	ldbu	r2,16(r2)
   46d30:	10803fcc 	andi	r2,r2,255
   46d34:	10000426 	beq	r2,zero,46d48 <alt_tick+0x54>
   46d38:	d0a02017 	ldw	r2,-32640(gp)
   46d3c:	1000021e 	bne	r2,zero,46d48 <alt_tick+0x54>
   46d40:	e0bffd17 	ldw	r2,-12(fp)
   46d44:	10000405 	stb	zero,16(r2)
   46d48:	e0bffd17 	ldw	r2,-12(fp)
   46d4c:	10800217 	ldw	r2,8(r2)
   46d50:	d0e02017 	ldw	r3,-32640(gp)
   46d54:	18801d36 	bltu	r3,r2,46dcc <alt_tick+0xd8>
   46d58:	e0bffd17 	ldw	r2,-12(fp)
   46d5c:	10800403 	ldbu	r2,16(r2)
   46d60:	10803fcc 	andi	r2,r2,255
   46d64:	1000191e 	bne	r2,zero,46dcc <alt_tick+0xd8>
   46d68:	e0bffd17 	ldw	r2,-12(fp)
   46d6c:	10c00317 	ldw	r3,12(r2)
   46d70:	e0bffd17 	ldw	r2,-12(fp)
   46d74:	10800517 	ldw	r2,20(r2)
   46d78:	1009883a 	mov	r4,r2
   46d7c:	183ee83a 	callr	r3
   46d80:	e0bfff15 	stw	r2,-4(fp)
   46d84:	e0bfff17 	ldw	r2,-4(fp)
   46d88:	1000031e 	bne	r2,zero,46d98 <alt_tick+0xa4>
   46d8c:	e13ffd17 	ldw	r4,-12(fp)
   46d90:	0046c5c0 	call	46c5c <alt_alarm_stop>
   46d94:	00000d06 	br	46dcc <alt_tick+0xd8>
   46d98:	e0bffd17 	ldw	r2,-12(fp)
   46d9c:	10c00217 	ldw	r3,8(r2)
   46da0:	e0bfff17 	ldw	r2,-4(fp)
   46da4:	1887883a 	add	r3,r3,r2
   46da8:	e0bffd17 	ldw	r2,-12(fp)
   46dac:	10c00215 	stw	r3,8(r2)
   46db0:	e0bffd17 	ldw	r2,-12(fp)
   46db4:	10c00217 	ldw	r3,8(r2)
   46db8:	d0a02017 	ldw	r2,-32640(gp)
   46dbc:	1880032e 	bgeu	r3,r2,46dcc <alt_tick+0xd8>
   46dc0:	e0bffd17 	ldw	r2,-12(fp)
   46dc4:	00c00044 	movi	r3,1
   46dc8:	10c00405 	stb	r3,16(r2)
   46dcc:	e0bffe17 	ldw	r2,-8(fp)
   46dd0:	e0bffd15 	stw	r2,-12(fp)
   46dd4:	e0fffd17 	ldw	r3,-12(fp)
   46dd8:	d0a01104 	addi	r2,gp,-32700
   46ddc:	18bfcf1e 	bne	r3,r2,46d1c <_gp+0xffff5d64>
   46de0:	0001883a 	nop
   46de4:	e037883a 	mov	sp,fp
   46de8:	dfc00117 	ldw	ra,4(sp)
   46dec:	df000017 	ldw	fp,0(sp)
   46df0:	dec00204 	addi	sp,sp,8
   46df4:	f800283a 	ret

00046df8 <altera_nios2_qsys_irq_init>:
   46df8:	deffff04 	addi	sp,sp,-4
   46dfc:	df000015 	stw	fp,0(sp)
   46e00:	d839883a 	mov	fp,sp
   46e04:	000170fa 	wrctl	ienable,zero
   46e08:	e037883a 	mov	sp,fp
   46e0c:	df000017 	ldw	fp,0(sp)
   46e10:	dec00104 	addi	sp,sp,4
   46e14:	f800283a 	ret

00046e18 <alt_find_dev>:
   46e18:	defffa04 	addi	sp,sp,-24
   46e1c:	dfc00515 	stw	ra,20(sp)
   46e20:	df000415 	stw	fp,16(sp)
   46e24:	df000404 	addi	fp,sp,16
   46e28:	e13ffe15 	stw	r4,-8(fp)
   46e2c:	e17fff15 	stw	r5,-4(fp)
   46e30:	e0bfff17 	ldw	r2,-4(fp)
   46e34:	10800017 	ldw	r2,0(r2)
   46e38:	e0bffc15 	stw	r2,-16(fp)
   46e3c:	e13ffe17 	ldw	r4,-8(fp)
   46e40:	004724c0 	call	4724c <strlen>
   46e44:	10800044 	addi	r2,r2,1
   46e48:	e0bffd15 	stw	r2,-12(fp)
   46e4c:	00000d06 	br	46e84 <alt_find_dev+0x6c>
   46e50:	e0bffc17 	ldw	r2,-16(fp)
   46e54:	10c00217 	ldw	r3,8(r2)
   46e58:	e0bffd17 	ldw	r2,-12(fp)
   46e5c:	1809883a 	mov	r4,r3
   46e60:	e17ffe17 	ldw	r5,-8(fp)
   46e64:	100d883a 	mov	r6,r2
   46e68:	00470900 	call	47090 <memcmp>
   46e6c:	1000021e 	bne	r2,zero,46e78 <alt_find_dev+0x60>
   46e70:	e0bffc17 	ldw	r2,-16(fp)
   46e74:	00000706 	br	46e94 <alt_find_dev+0x7c>
   46e78:	e0bffc17 	ldw	r2,-16(fp)
   46e7c:	10800017 	ldw	r2,0(r2)
   46e80:	e0bffc15 	stw	r2,-16(fp)
   46e84:	e0fffc17 	ldw	r3,-16(fp)
   46e88:	e0bfff17 	ldw	r2,-4(fp)
   46e8c:	18bff01e 	bne	r3,r2,46e50 <_gp+0xffff5e98>
   46e90:	0005883a 	mov	r2,zero
   46e94:	e037883a 	mov	sp,fp
   46e98:	dfc00117 	ldw	ra,4(sp)
   46e9c:	df000017 	ldw	fp,0(sp)
   46ea0:	dec00204 	addi	sp,sp,8
   46ea4:	f800283a 	ret

00046ea8 <alt_find_file>:
   46ea8:	defffb04 	addi	sp,sp,-20
   46eac:	dfc00415 	stw	ra,16(sp)
   46eb0:	df000315 	stw	fp,12(sp)
   46eb4:	df000304 	addi	fp,sp,12
   46eb8:	e13fff15 	stw	r4,-4(fp)
   46ebc:	00800174 	movhi	r2,5
   46ec0:	10a3f704 	addi	r2,r2,-28708
   46ec4:	10800017 	ldw	r2,0(r2)
   46ec8:	e0bffd15 	stw	r2,-12(fp)
   46ecc:	00003106 	br	46f94 <alt_find_file+0xec>
   46ed0:	e0bffd17 	ldw	r2,-12(fp)
   46ed4:	10800217 	ldw	r2,8(r2)
   46ed8:	1009883a 	mov	r4,r2
   46edc:	004724c0 	call	4724c <strlen>
   46ee0:	e0bffe15 	stw	r2,-8(fp)
   46ee4:	e0bffd17 	ldw	r2,-12(fp)
   46ee8:	10c00217 	ldw	r3,8(r2)
   46eec:	e0bffe17 	ldw	r2,-8(fp)
   46ef0:	10bfffc4 	addi	r2,r2,-1
   46ef4:	1885883a 	add	r2,r3,r2
   46ef8:	10800003 	ldbu	r2,0(r2)
   46efc:	10803fcc 	andi	r2,r2,255
   46f00:	1080201c 	xori	r2,r2,128
   46f04:	10bfe004 	addi	r2,r2,-128
   46f08:	10800bd8 	cmpnei	r2,r2,47
   46f0c:	1000031e 	bne	r2,zero,46f1c <alt_find_file+0x74>
   46f10:	e0bffe17 	ldw	r2,-8(fp)
   46f14:	10bfffc4 	addi	r2,r2,-1
   46f18:	e0bffe15 	stw	r2,-8(fp)
   46f1c:	e0bffe17 	ldw	r2,-8(fp)
   46f20:	e0ffff17 	ldw	r3,-4(fp)
   46f24:	1885883a 	add	r2,r3,r2
   46f28:	10800003 	ldbu	r2,0(r2)
   46f2c:	10803fcc 	andi	r2,r2,255
   46f30:	1080201c 	xori	r2,r2,128
   46f34:	10bfe004 	addi	r2,r2,-128
   46f38:	10800be0 	cmpeqi	r2,r2,47
   46f3c:	1000081e 	bne	r2,zero,46f60 <alt_find_file+0xb8>
   46f40:	e0bffe17 	ldw	r2,-8(fp)
   46f44:	e0ffff17 	ldw	r3,-4(fp)
   46f48:	1885883a 	add	r2,r3,r2
   46f4c:	10800003 	ldbu	r2,0(r2)
   46f50:	10803fcc 	andi	r2,r2,255
   46f54:	1080201c 	xori	r2,r2,128
   46f58:	10bfe004 	addi	r2,r2,-128
   46f5c:	10000a1e 	bne	r2,zero,46f88 <alt_find_file+0xe0>
   46f60:	e0bffd17 	ldw	r2,-12(fp)
   46f64:	10c00217 	ldw	r3,8(r2)
   46f68:	e0bffe17 	ldw	r2,-8(fp)
   46f6c:	1809883a 	mov	r4,r3
   46f70:	e17fff17 	ldw	r5,-4(fp)
   46f74:	100d883a 	mov	r6,r2
   46f78:	00470900 	call	47090 <memcmp>
   46f7c:	1000021e 	bne	r2,zero,46f88 <alt_find_file+0xe0>
   46f80:	e0bffd17 	ldw	r2,-12(fp)
   46f84:	00000806 	br	46fa8 <alt_find_file+0x100>
   46f88:	e0bffd17 	ldw	r2,-12(fp)
   46f8c:	10800017 	ldw	r2,0(r2)
   46f90:	e0bffd15 	stw	r2,-12(fp)
   46f94:	e0fffd17 	ldw	r3,-12(fp)
   46f98:	00800174 	movhi	r2,5
   46f9c:	10a3f704 	addi	r2,r2,-28708
   46fa0:	18bfcb1e 	bne	r3,r2,46ed0 <_gp+0xffff5f18>
   46fa4:	0005883a 	mov	r2,zero
   46fa8:	e037883a 	mov	sp,fp
   46fac:	dfc00117 	ldw	ra,4(sp)
   46fb0:	df000017 	ldw	fp,0(sp)
   46fb4:	dec00204 	addi	sp,sp,8
   46fb8:	f800283a 	ret

00046fbc <alt_get_fd>:
   46fbc:	defffa04 	addi	sp,sp,-24
   46fc0:	dfc00515 	stw	ra,20(sp)
   46fc4:	df000415 	stw	fp,16(sp)
   46fc8:	dc000315 	stw	r16,12(sp)
   46fcc:	df000304 	addi	fp,sp,12
   46fd0:	e13fff15 	stw	r4,-4(fp)
   46fd4:	00bffa04 	movi	r2,-24
   46fd8:	e0bffe15 	stw	r2,-8(fp)
   46fdc:	e03ffd15 	stw	zero,-12(fp)
   46fe0:	00002106 	br	47068 <alt_get_fd+0xac>
   46fe4:	04000134 	movhi	r16,4
   46fe8:	841f4504 	addi	r16,r16,32020
   46fec:	e0bffd17 	ldw	r2,-12(fp)
   46ff0:	1009883a 	mov	r4,r2
   46ff4:	01400304 	movi	r5,12
   46ff8:	0041ce40 	call	41ce4 <__mulsi3>
   46ffc:	8085883a 	add	r2,r16,r2
   47000:	10800017 	ldw	r2,0(r2)
   47004:	1000151e 	bne	r2,zero,4705c <alt_get_fd+0xa0>
   47008:	04000134 	movhi	r16,4
   4700c:	841f4504 	addi	r16,r16,32020
   47010:	e0bffd17 	ldw	r2,-12(fp)
   47014:	1009883a 	mov	r4,r2
   47018:	01400304 	movi	r5,12
   4701c:	0041ce40 	call	41ce4 <__mulsi3>
   47020:	8085883a 	add	r2,r16,r2
   47024:	e0ffff17 	ldw	r3,-4(fp)
   47028:	10c00015 	stw	r3,0(r2)
   4702c:	00800174 	movhi	r2,5
   47030:	10a3fb04 	addi	r2,r2,-28692
   47034:	10c00017 	ldw	r3,0(r2)
   47038:	e0bffd17 	ldw	r2,-12(fp)
   4703c:	1880040e 	bge	r3,r2,47050 <alt_get_fd+0x94>
   47040:	00800174 	movhi	r2,5
   47044:	10a3fb04 	addi	r2,r2,-28692
   47048:	e0fffd17 	ldw	r3,-12(fp)
   4704c:	10c00015 	stw	r3,0(r2)
   47050:	e0bffd17 	ldw	r2,-12(fp)
   47054:	e0bffe15 	stw	r2,-8(fp)
   47058:	00000606 	br	47074 <alt_get_fd+0xb8>
   4705c:	e0bffd17 	ldw	r2,-12(fp)
   47060:	10800044 	addi	r2,r2,1
   47064:	e0bffd15 	stw	r2,-12(fp)
   47068:	e0bffd17 	ldw	r2,-12(fp)
   4706c:	10800810 	cmplti	r2,r2,32
   47070:	103fdc1e 	bne	r2,zero,46fe4 <_gp+0xffff602c>
   47074:	e0bffe17 	ldw	r2,-8(fp)
   47078:	e037883a 	mov	sp,fp
   4707c:	dfc00217 	ldw	ra,8(sp)
   47080:	df000117 	ldw	fp,4(sp)
   47084:	dc000017 	ldw	r16,0(sp)
   47088:	dec00304 	addi	sp,sp,12
   4708c:	f800283a 	ret

00047090 <memcmp>:
   47090:	01c000c4 	movi	r7,3
   47094:	3980192e 	bgeu	r7,r6,470fc <memcmp+0x6c>
   47098:	2904b03a 	or	r2,r5,r4
   4709c:	11c4703a 	and	r2,r2,r7
   470a0:	10000f26 	beq	r2,zero,470e0 <memcmp+0x50>
   470a4:	20c00003 	ldbu	r3,0(r4)
   470a8:	28800003 	ldbu	r2,0(r5)
   470ac:	1880151e 	bne	r3,r2,47104 <memcmp+0x74>
   470b0:	31bfff84 	addi	r6,r6,-2
   470b4:	01ffffc4 	movi	r7,-1
   470b8:	00000406 	br	470cc <memcmp+0x3c>
   470bc:	20c00003 	ldbu	r3,0(r4)
   470c0:	28800003 	ldbu	r2,0(r5)
   470c4:	31bfffc4 	addi	r6,r6,-1
   470c8:	18800e1e 	bne	r3,r2,47104 <memcmp+0x74>
   470cc:	21000044 	addi	r4,r4,1
   470d0:	29400044 	addi	r5,r5,1
   470d4:	31fff91e 	bne	r6,r7,470bc <_gp+0xffff6104>
   470d8:	0005883a 	mov	r2,zero
   470dc:	f800283a 	ret
   470e0:	20c00017 	ldw	r3,0(r4)
   470e4:	28800017 	ldw	r2,0(r5)
   470e8:	1880041e 	bne	r3,r2,470fc <memcmp+0x6c>
   470ec:	31bfff04 	addi	r6,r6,-4
   470f0:	21000104 	addi	r4,r4,4
   470f4:	29400104 	addi	r5,r5,4
   470f8:	39bff936 	bltu	r7,r6,470e0 <_gp+0xffff6128>
   470fc:	303fe91e 	bne	r6,zero,470a4 <_gp+0xffff60ec>
   47100:	003ff506 	br	470d8 <_gp+0xffff6120>
   47104:	1885c83a 	sub	r2,r3,r2
   47108:	f800283a 	ret

0004710c <memcpy>:
   4710c:	defffb04 	addi	sp,sp,-20
   47110:	dc000015 	stw	r16,0(sp)
   47114:	dfc00415 	stw	ra,16(sp)
   47118:	dcc00315 	stw	r19,12(sp)
   4711c:	dc800215 	stw	r18,8(sp)
   47120:	dc400115 	stw	r17,4(sp)
   47124:	00c003c4 	movi	r3,15
   47128:	2021883a 	mov	r16,r4
   4712c:	3005883a 	mov	r2,r6
   47130:	1980032e 	bgeu	r3,r6,47140 <memcpy+0x34>
   47134:	2906b03a 	or	r3,r5,r4
   47138:	18c000cc 	andi	r3,r3,3
   4713c:	18001026 	beq	r3,zero,47180 <memcpy+0x74>
   47140:	8007883a 	mov	r3,r16
   47144:	288f883a 	add	r7,r5,r2
   47148:	10000526 	beq	r2,zero,47160 <memcpy+0x54>
   4714c:	29800003 	ldbu	r6,0(r5)
   47150:	18c00044 	addi	r3,r3,1
   47154:	29400044 	addi	r5,r5,1
   47158:	19bfffc5 	stb	r6,-1(r3)
   4715c:	29fffb1e 	bne	r5,r7,4714c <_gp+0xffff6194>
   47160:	8005883a 	mov	r2,r16
   47164:	dfc00417 	ldw	ra,16(sp)
   47168:	dcc00317 	ldw	r19,12(sp)
   4716c:	dc800217 	ldw	r18,8(sp)
   47170:	dc400117 	ldw	r17,4(sp)
   47174:	dc000017 	ldw	r16,0(sp)
   47178:	dec00504 	addi	sp,sp,20
   4717c:	f800283a 	ret
   47180:	32bffc04 	addi	r10,r6,-16
   47184:	5014d13a 	srli	r10,r10,4
   47188:	20800404 	addi	r2,r4,16
   4718c:	2007883a 	mov	r3,r4
   47190:	5008913a 	slli	r4,r10,4
   47194:	280f883a 	mov	r7,r5
   47198:	1105883a 	add	r2,r2,r4
   4719c:	3a000017 	ldw	r8,0(r7)
   471a0:	18c00404 	addi	r3,r3,16
   471a4:	39c00404 	addi	r7,r7,16
   471a8:	1a3ffc15 	stw	r8,-16(r3)
   471ac:	3a3ffd17 	ldw	r8,-12(r7)
   471b0:	1a3ffd15 	stw	r8,-12(r3)
   471b4:	3a3ffe17 	ldw	r8,-8(r7)
   471b8:	1a3ffe15 	stw	r8,-8(r3)
   471bc:	3a3fff17 	ldw	r8,-4(r7)
   471c0:	1a3fff15 	stw	r8,-4(r3)
   471c4:	18bff51e 	bne	r3,r2,4719c <_gp+0xffff61e4>
   471c8:	52800044 	addi	r10,r10,1
   471cc:	5014913a 	slli	r10,r10,4
   471d0:	308003cc 	andi	r2,r6,15
   471d4:	010000c4 	movi	r4,3
   471d8:	8287883a 	add	r3,r16,r10
   471dc:	2a95883a 	add	r10,r5,r10
   471e0:	2080182e 	bgeu	r4,r2,47244 <memcpy+0x138>
   471e4:	147fff04 	addi	r17,r2,-4
   471e8:	8808d0ba 	srli	r4,r17,2
   471ec:	1a400104 	addi	r9,r3,4
   471f0:	180d883a 	mov	r6,r3
   471f4:	2105883a 	add	r2,r4,r4
   471f8:	1085883a 	add	r2,r2,r2
   471fc:	4893883a 	add	r9,r9,r2
   47200:	500f883a 	mov	r7,r10
   47204:	3a000017 	ldw	r8,0(r7)
   47208:	31800104 	addi	r6,r6,4
   4720c:	39c00104 	addi	r7,r7,4
   47210:	323fff15 	stw	r8,-4(r6)
   47214:	327ffb1e 	bne	r6,r9,47204 <_gp+0xffff624c>
   47218:	20800044 	addi	r2,r4,1
   4721c:	1085883a 	add	r2,r2,r2
   47220:	1085883a 	add	r2,r2,r2
   47224:	017fff04 	movi	r5,-4
   47228:	18a5883a 	add	r18,r3,r2
   4722c:	50a7883a 	add	r19,r10,r2
   47230:	0041ce40 	call	41ce4 <__mulsi3>
   47234:	1445883a 	add	r2,r2,r17
   47238:	980b883a 	mov	r5,r19
   4723c:	9007883a 	mov	r3,r18
   47240:	003fc006 	br	47144 <_gp+0xffff618c>
   47244:	500b883a 	mov	r5,r10
   47248:	003fbe06 	br	47144 <_gp+0xffff618c>

0004724c <strlen>:
   4724c:	208000cc 	andi	r2,r4,3
   47250:	10001f1e 	bne	r2,zero,472d0 <strlen+0x84>
   47254:	20800017 	ldw	r2,0(r4)
   47258:	01ffbff4 	movhi	r7,65279
   4725c:	39ffbfc4 	addi	r7,r7,-257
   47260:	01a02074 	movhi	r6,32897
   47264:	31a02004 	addi	r6,r6,-32640
   47268:	11c7883a 	add	r3,r2,r7
   4726c:	0084303a 	nor	r2,zero,r2
   47270:	1886703a 	and	r3,r3,r2
   47274:	1986703a 	and	r3,r3,r6
   47278:	2005883a 	mov	r2,r4
   4727c:	1800101e 	bne	r3,zero,472c0 <strlen+0x74>
   47280:	10800104 	addi	r2,r2,4
   47284:	10c00017 	ldw	r3,0(r2)
   47288:	19cb883a 	add	r5,r3,r7
   4728c:	00c6303a 	nor	r3,zero,r3
   47290:	28c6703a 	and	r3,r5,r3
   47294:	1986703a 	and	r3,r3,r6
   47298:	1800091e 	bne	r3,zero,472c0 <strlen+0x74>
   4729c:	10800104 	addi	r2,r2,4
   472a0:	10c00017 	ldw	r3,0(r2)
   472a4:	19cb883a 	add	r5,r3,r7
   472a8:	00c6303a 	nor	r3,zero,r3
   472ac:	28c6703a 	and	r3,r5,r3
   472b0:	1986703a 	and	r3,r3,r6
   472b4:	183ff226 	beq	r3,zero,47280 <_gp+0xffff62c8>
   472b8:	00000106 	br	472c0 <strlen+0x74>
   472bc:	10800044 	addi	r2,r2,1
   472c0:	10c00007 	ldb	r3,0(r2)
   472c4:	183ffd1e 	bne	r3,zero,472bc <_gp+0xffff6304>
   472c8:	1105c83a 	sub	r2,r2,r4
   472cc:	f800283a 	ret
   472d0:	2005883a 	mov	r2,r4
   472d4:	003ffa06 	br	472c0 <_gp+0xffff6308>
